CCS PCH C Compiler, Version 5.112, 29001               17-may.-25 02:46

               Filename:   C:\Users\gabog\OneDrive\Documentos\GitHub\Probador_Componentes_Electronicos\Probador18f2520.lst

               ROM used:   18840 bytes (57%)
                           Largest free fragment is 13924
               RAM used:   68 (4%) at main() level
                           95 (6%) worst case
               Stack used: 7 locations (6 in main + 1 for interrupts)
               Stack size: 31

*
0000:  GOTO   1A3A
*
0008:  MOVWF  04
000A:  MOVFF  FD8,05
000E:  MOVFF  FE0,06
0012:  MOVLB  0
0014:  MOVFF  FE9,0C
0018:  MOVFF  FEA,07
001C:  MOVFF  FE1,08
0020:  MOVFF  FE2,09
0024:  MOVFF  FD9,0A
0028:  MOVFF  FDA,0B
002C:  MOVFF  FF3,12
0030:  MOVFF  FF4,13
0034:  MOVFF  FFA,14
0038:  MOVFF  FF5,15
003C:  MOVFF  FF6,16
0040:  MOVFF  FF7,17
0044:  MOVFF  00,0E
0048:  MOVFF  01,0F
004C:  MOVFF  02,10
0050:  MOVFF  03,11
0054:  BTFSS  FF2.5
0056:  GOTO   0060
005A:  BTFSC  FF2.2
005C:  GOTO   00DA
0060:  BTFSS  FF0.4
0062:  GOTO   006C
0066:  BTFSC  FF0.1
0068:  GOTO   00CE
006C:  MOVFF  0E,00
0070:  MOVFF  0F,01
0074:  MOVFF  10,02
0078:  MOVFF  11,03
007C:  MOVFF  0C,FE9
0080:  MOVFF  07,FEA
0084:  BSF    07.7
0086:  MOVFF  08,FE1
008A:  MOVFF  09,FE2
008E:  MOVFF  0A,FD9
0092:  MOVFF  0B,FDA
0096:  MOVFF  12,FF3
009A:  MOVFF  13,FF4
009E:  MOVFF  14,FFA
00A2:  MOVFF  15,FF5
00A6:  MOVFF  16,FF6
00AA:  MOVFF  17,FF7
00AE:  MOVF   04,W
00B0:  MOVFF  06,FE0
00B4:  MOVFF  05,FD8
00B8:  RETFIE 0
.................... #include <18f2520.h>
.................... //////////// Standard Header file for the PIC18F2520 device ////////////////
.................... ///////////////////////////////////////////////////////////////////////////
.................... ////        (C) Copyright 1996, 2020 Custom Computer Services          ////
.................... //// This source code may only be used by licensed users of the CCS C  ////
.................... //// compiler.  This source code may only be distributed to other      ////
.................... //// licensed users of the CCS C compiler.  No other use, reproduction ////
.................... //// or distribution is permitted without written permission.          ////
.................... //// Derivative programs created using this software in object code    ////
.................... //// form are not restricted in any way.                               ////
.................... ///////////////////////////////////////////////////////////////////////////
.................... #device PIC18F2520
00BA:  CLRF   FF7
00BC:  ADDLW  CA
00BE:  MOVWF  FF6
00C0:  MOVLW  00
00C2:  ADDWFC FF7,F
00C4:  TBLRD*+
00C6:  MOVF   FF5,W
00C8:  RETURN 0
00CA:  DATA 28,0C
00CC:  DATA 01,06
*
00FE:  DATA 55,4E
0100:  DATA 45,58
0102:  DATA 50,4F
0104:  DATA 00,00
0106:  DATA 42,41
0108:  DATA 52,51
010A:  DATA 55,49
010C:  DATA 53,49
010E:  DATA 4D,45
0110:  DATA 54,4F
0112:  DATA 00,00
0114:  DATA 44,61
0116:  DATA 6E,69
0118:  DATA 65,6C
011A:  DATA 61,20
011C:  DATA 43,61
011E:  DATA F1,61
0120:  DATA 73,00
0122:  DATA 5B,44
0124:  DATA 65,76
0126:  DATA 65,6C
0128:  DATA 6F,70
012A:  DATA 65,72
012C:  DATA 5D,00
012E:  DATA 47,61
0130:  DATA 62,72
0132:  DATA 69,65
0134:  DATA 6C,20
0136:  DATA 47,69
0138:  DATA 6D,65
013A:  DATA 6E,65
013C:  DATA 7A,00
013E:  DATA 5B,44
0140:  DATA 65,76
0142:  DATA 65,6C
0144:  DATA 6F,70
0146:  DATA 65,72
0148:  DATA 5D,00
014A:  DATA 43,61
014C:  DATA 72,6C
014E:  DATA 6F,73
0150:  DATA 20,47
0152:  DATA 75,65
0154:  DATA 64,65
0156:  DATA 7A,00
0158:  DATA 5B,44
015A:  DATA 65,76
015C:  DATA 65,6C
015E:  DATA 6F,70
0160:  DATA 65,72
0162:  DATA 5D,00
0164:  DATA 43,61
0166:  DATA 72,6C
0168:  DATA 6F,73
016A:  DATA 20,5A
016C:  DATA 61,6D
016E:  DATA 62,72
0170:  DATA 61,6E
0172:  DATA 6F,00
0174:  DATA 5B,54
0176:  DATA 75,74
0178:  DATA 6F,72
017A:  DATA 5D,00
017C:  DATA 5B,4D
017E:  DATA 45,4E
0180:  DATA 55,5D
0182:  DATA 20,20
0184:  DATA 32,3E
0186:  DATA 54,54
0188:  DATA 4C,00
018A:  DATA 31,3E
018C:  DATA 41,44
018E:  DATA 36,32
0190:  DATA 30,20
0192:  DATA 33,3E
0194:  DATA 4E,65
0196:  DATA 78,74
0198:  DATA 00,00
019A:  DATA 4D,45
019C:  DATA 4E,55
019E:  DATA 20,54
01A0:  DATA 54,4C
01A2:  DATA 00,00
01A4:  DATA 31,3E
01A6:  DATA 37,34
01A8:  DATA 30,38
01AA:  DATA 20,33
01AC:  DATA 3E,4E
01AE:  DATA 65,78
01B0:  DATA 74,00
01B2:  DATA 37,34
01B4:  DATA 4C,53
01B6:  DATA 30,38
01B8:  DATA 20,54
01BA:  DATA 65,73
01BC:  DATA 74,69
01BE:  DATA 6E,67
01C0:  DATA 2E,2E
01C2:  DATA 2E,00
01C4:  DATA 32,3E
01C6:  DATA 56,6F
01C8:  DATA 6C,76
01CA:  DATA 65,72
01CC:  DATA 00,00
01CE:  DATA 41,4E
01D0:  DATA 44,2D
01D2:  DATA 31,20
01D4:  DATA 42,75
01D6:  DATA 65,6E
01D8:  DATA 6F,21
01DA:  DATA 00,00
01DC:  DATA 37,34
01DE:  DATA 4C,53
01E0:  DATA 30,38
01E2:  DATA 20,54
01E4:  DATA 65,73
01E6:  DATA 74,69
01E8:  DATA 6E,67
01EA:  DATA 2E,2E
01EC:  DATA 2E,00
01EE:  DATA 41,4E
01F0:  DATA 44,2D
01F2:  DATA 32,20
01F4:  DATA 42,75
01F6:  DATA 65,6E
01F8:  DATA 6F,21
01FA:  DATA 00,00
01FC:  DATA 37,34
01FE:  DATA 4C,53
0200:  DATA 30,38
0202:  DATA 20,54
0204:  DATA 65,73
0206:  DATA 74,69
0208:  DATA 6E,67
020A:  DATA 2E,2E
020C:  DATA 2E,00
020E:  DATA 41,4E
0210:  DATA 44,2D
0212:  DATA 33,20
0214:  DATA 42,75
0216:  DATA 65,6E
0218:  DATA 6F,21
021A:  DATA 00,00
021C:  DATA 37,34
021E:  DATA 4C,53
0220:  DATA 30,38
0222:  DATA 20,54
0224:  DATA 65,73
0226:  DATA 74,69
0228:  DATA 6E,67
022A:  DATA 2E,2E
022C:  DATA 2E,00
022E:  DATA 41,4E
0230:  DATA 44,2D
0232:  DATA 34,20
0234:  DATA 42,75
0236:  DATA 65,6E
0238:  DATA 6F,21
023A:  DATA 00,00
023C:  DATA 37,34
023E:  DATA 4C,53
0240:  DATA 30,38
0242:  DATA 20,54
0244:  DATA 65,73
0246:  DATA 74,69
0248:  DATA 6E,67
024A:  DATA 2E,2E
024C:  DATA 2E,00
024E:  DATA 42,75
0250:  DATA 65,6E
0252:  DATA 6F,73
0254:  DATA 20,25
0256:  DATA 69,00
0258:  DATA 52,65
025A:  DATA 67,72
025C:  DATA 65,73
025E:  DATA 61,6E
0260:  DATA 64,6F
0262:  DATA 2E,2E
0264:  DATA 00,00
0266:  DATA 4D,45
0268:  DATA 4E,55
026A:  DATA 20,54
026C:  DATA 54,4C
026E:  DATA 00,00
0270:  DATA 31,3E
0272:  DATA 37,34
0274:  DATA 30,38
0276:  DATA 20,33
0278:  DATA 3E,4E
027A:  DATA 65,78
027C:  DATA 74,00
027E:  DATA 4D,45
0280:  DATA 4E,55
0282:  DATA 20,50
0284:  DATA 52,49
0286:  DATA 4E,43
0288:  DATA 49,50
028A:  DATA 41,4C
028C:  DATA 00,00
028E:  DATA 31,3E
0290:  DATA 37,34
0292:  DATA 30,38
0294:  DATA 20,33
0296:  DATA 3E,4E
0298:  DATA 65,78
029A:  DATA 74,00
029C:  DATA 31,3E
029E:  DATA 37,34
02A0:  DATA 30,32
02A2:  DATA 20,32
02A4:  DATA 3E,37
02A6:  DATA 34,38
02A8:  DATA 36,00
02AA:  DATA 34,3E
02AC:  DATA 37,34
02AE:  DATA 33,32
02B0:  DATA 20,33
02B2:  DATA 3E,4E
02B4:  DATA 65,78
02B6:  DATA 74,00
02B8:  DATA 37,34
02BA:  DATA 4C,53
02BC:  DATA 30,32
02BE:  DATA 20,54
02C0:  DATA 65,73
02C2:  DATA 74,69
02C4:  DATA 6E,67
02C6:  DATA 2E,2E
02C8:  DATA 2E,00
02CA:  DATA 32,3E
02CC:  DATA 56,6F
02CE:  DATA 6C,76
02D0:  DATA 65,72
02D2:  DATA 00,00
02D4:  DATA 4E,4F
02D6:  DATA 52,2D
02D8:  DATA 31,20
02DA:  DATA 42,75
02DC:  DATA 65,6E
02DE:  DATA 6F,21
02E0:  DATA 00,00
02E2:  DATA 37,34
02E4:  DATA 4C,53
02E6:  DATA 30,32
02E8:  DATA 20,54
02EA:  DATA 65,73
02EC:  DATA 74,69
02EE:  DATA 6E,67
02F0:  DATA 2E,2E
02F2:  DATA 2E,00
02F4:  DATA 4E,4F
02F6:  DATA 52,2D
02F8:  DATA 32,20
02FA:  DATA 42,75
02FC:  DATA 65,6E
02FE:  DATA 6F,21
0300:  DATA 00,00
0302:  DATA 37,34
0304:  DATA 4C,53
0306:  DATA 30,32
0308:  DATA 20,54
030A:  DATA 65,73
030C:  DATA 74,69
030E:  DATA 6E,67
0310:  DATA 2E,2E
0312:  DATA 2E,00
0314:  DATA 4E,4F
0316:  DATA 52,2D
0318:  DATA 33,20
031A:  DATA 42,75
031C:  DATA 65,6E
031E:  DATA 6F,21
0320:  DATA 00,00
0322:  DATA 37,34
0324:  DATA 4C,53
0326:  DATA 30,32
0328:  DATA 20,54
032A:  DATA 65,73
032C:  DATA 74,69
032E:  DATA 6E,67
0330:  DATA 2E,2E
0332:  DATA 2E,00
0334:  DATA 4E,4F
0336:  DATA 52,2D
0338:  DATA 34,20
033A:  DATA 42,75
033C:  DATA 65,6E
033E:  DATA 6F,21
0340:  DATA 00,00
0342:  DATA 37,34
0344:  DATA 4C,53
0346:  DATA 30,32
0348:  DATA 20,54
034A:  DATA 65,73
034C:  DATA 74,69
034E:  DATA 6E,67
0350:  DATA 2E,2E
0352:  DATA 2E,00
0354:  DATA 42,75
0356:  DATA 65,6E
0358:  DATA 6F,73
035A:  DATA 20,25
035C:  DATA 69,00
035E:  DATA 52,65
0360:  DATA 67,72
0362:  DATA 65,73
0364:  DATA 61,6E
0366:  DATA 64,6F
0368:  DATA 2E,2E
036A:  DATA 00,00
036C:  DATA 37,34
036E:  DATA 4C,53
0370:  DATA 38,36
0372:  DATA 20,54
0374:  DATA 65,73
0376:  DATA 74,69
0378:  DATA 6E,67
037A:  DATA 2E,2E
037C:  DATA 2E,00
037E:  DATA 32,3E
0380:  DATA 56,6F
0382:  DATA 6C,76
0384:  DATA 65,72
0386:  DATA 00,00
0388:  DATA 58,4F
038A:  DATA 52,2D
038C:  DATA 31,20
038E:  DATA 42,75
0390:  DATA 65,6E
0392:  DATA 6F,21
0394:  DATA 00,00
0396:  DATA 37,34
0398:  DATA 4C,53
039A:  DATA 38,36
039C:  DATA 20,54
039E:  DATA 65,73
03A0:  DATA 74,69
03A2:  DATA 6E,67
03A4:  DATA 2E,2E
03A6:  DATA 2E,00
03A8:  DATA 58,4F
03AA:  DATA 52,2D
03AC:  DATA 32,20
03AE:  DATA 42,75
03B0:  DATA 65,6E
03B2:  DATA 6F,21
03B4:  DATA 00,00
03B6:  DATA 37,34
03B8:  DATA 4C,53
03BA:  DATA 38,36
03BC:  DATA 20,54
03BE:  DATA 65,73
03C0:  DATA 74,69
03C2:  DATA 6E,67
03C4:  DATA 2E,2E
03C6:  DATA 2E,00
03C8:  DATA 58,4F
03CA:  DATA 52,2D
03CC:  DATA 33,20
03CE:  DATA 42,75
03D0:  DATA 65,6E
03D2:  DATA 6F,21
03D4:  DATA 00,00
03D6:  DATA 37,34
03D8:  DATA 4C,53
03DA:  DATA 38,36
03DC:  DATA 20,54
03DE:  DATA 65,73
03E0:  DATA 74,69
03E2:  DATA 6E,67
03E4:  DATA 2E,2E
03E6:  DATA 2E,00
03E8:  DATA 58,4F
03EA:  DATA 52,2D
03EC:  DATA 34,20
03EE:  DATA 42,75
03F0:  DATA 65,6E
03F2:  DATA 6F,21
03F4:  DATA 00,00
03F6:  DATA 37,34
03F8:  DATA 4C,53
03FA:  DATA 38,36
03FC:  DATA 20,54
03FE:  DATA 65,73
0400:  DATA 74,69
0402:  DATA 6E,67
0404:  DATA 2E,2E
0406:  DATA 2E,00
0408:  DATA 42,75
040A:  DATA 65,6E
040C:  DATA 6F,73
040E:  DATA 20,25
0410:  DATA 69,00
0412:  DATA 52,65
0414:  DATA 67,72
0416:  DATA 65,73
0418:  DATA 61,6E
041A:  DATA 64,6F
041C:  DATA 2E,2E
041E:  DATA 00,00
0420:  DATA 37,34
0422:  DATA 4C,53
0424:  DATA 33,32
0426:  DATA 20,54
0428:  DATA 65,73
042A:  DATA 74,69
042C:  DATA 6E,67
042E:  DATA 2E,2E
0430:  DATA 2E,00
0432:  DATA 32,3E
0434:  DATA 56,6F
0436:  DATA 6C,76
0438:  DATA 65,72
043A:  DATA 00,00
043C:  DATA 4F,52
043E:  DATA 2D,31
0440:  DATA 20,42
0442:  DATA 75,65
0444:  DATA 6E,6F
0446:  DATA 21,00
0448:  DATA 37,34
044A:  DATA 4C,53
044C:  DATA 33,32
044E:  DATA 20,54
0450:  DATA 65,73
0452:  DATA 74,69
0454:  DATA 6E,67
0456:  DATA 2E,2E
0458:  DATA 2E,00
045A:  DATA 4F,52
045C:  DATA 2D,32
045E:  DATA 20,42
0460:  DATA 75,65
0462:  DATA 6E,6F
0464:  DATA 21,00
0466:  DATA 37,34
0468:  DATA 4C,53
046A:  DATA 33,32
046C:  DATA 20,54
046E:  DATA 65,73
0470:  DATA 74,69
0472:  DATA 6E,67
0474:  DATA 2E,2E
0476:  DATA 2E,00
0478:  DATA 4F,52
047A:  DATA 2D,33
047C:  DATA 20,42
047E:  DATA 75,65
0480:  DATA 6E,6F
0482:  DATA 21,00
0484:  DATA 37,34
0486:  DATA 4C,53
0488:  DATA 33,32
048A:  DATA 20,54
048C:  DATA 65,73
048E:  DATA 74,69
0490:  DATA 6E,67
0492:  DATA 2E,2E
0494:  DATA 2E,00
0496:  DATA 4F,52
0498:  DATA 2D,34
049A:  DATA 20,42
049C:  DATA 75,65
049E:  DATA 6E,6F
04A0:  DATA 21,00
04A2:  DATA 37,34
04A4:  DATA 4C,53
04A6:  DATA 33,32
04A8:  DATA 20,54
04AA:  DATA 65,73
04AC:  DATA 74,69
04AE:  DATA 6E,67
04B0:  DATA 2E,2E
04B2:  DATA 2E,00
04B4:  DATA 42,75
04B6:  DATA 65,6E
04B8:  DATA 6F,73
04BA:  DATA 20,25
04BC:  DATA 69,00
04BE:  DATA 52,65
04C0:  DATA 67,72
04C2:  DATA 65,73
04C4:  DATA 61,6E
04C6:  DATA 64,6F
04C8:  DATA 2E,2E
04CA:  DATA 00,00
04CC:  DATA 31,3E
04CE:  DATA 37,34
04D0:  DATA 30,30
04D2:  DATA 20,32
04D4:  DATA 3E,37
04D6:  DATA 34,30
04D8:  DATA 31,00
04DA:  DATA 34,3E
04DC:  DATA 37,34
04DE:  DATA 30,34
04E0:  DATA 20,33
04E2:  DATA 3E,4E
04E4:  DATA 65,78
04E6:  DATA 74,00
04E8:  DATA 37,34
04EA:  DATA 4C,53
04EC:  DATA 30,30
04EE:  DATA 20,54
04F0:  DATA 65,73
04F2:  DATA 74,69
04F4:  DATA 6E,67
04F6:  DATA 2E,2E
04F8:  DATA 2E,00
04FA:  DATA 32,3E
04FC:  DATA 56,6F
04FE:  DATA 6C,76
0500:  DATA 65,72
0502:  DATA 00,00
0504:  DATA 4E,41
0506:  DATA 4E,44
0508:  DATA 2D,31
050A:  DATA 20,42
050C:  DATA 75,65
050E:  DATA 6E,6F
0510:  DATA 21,00
0512:  DATA 37,34
0514:  DATA 4C,53
0516:  DATA 30,30
0518:  DATA 20,54
051A:  DATA 65,73
051C:  DATA 74,69
051E:  DATA 6E,67
0520:  DATA 2E,2E
0522:  DATA 2E,00
0524:  DATA 4E,41
0526:  DATA 4E,44
0528:  DATA 2D,32
052A:  DATA 20,42
052C:  DATA 75,65
052E:  DATA 6E,6F
0530:  DATA 21,00
0532:  DATA 37,34
0534:  DATA 4C,53
0536:  DATA 30,30
0538:  DATA 20,54
053A:  DATA 65,73
053C:  DATA 74,69
053E:  DATA 6E,67
0540:  DATA 2E,2E
0542:  DATA 2E,00
0544:  DATA 4E,41
0546:  DATA 4E,44
0548:  DATA 2D,33
054A:  DATA 20,42
054C:  DATA 75,65
054E:  DATA 6E,6F
0550:  DATA 21,00
0552:  DATA 37,34
0554:  DATA 4C,53
0556:  DATA 30,30
0558:  DATA 20,54
055A:  DATA 65,73
055C:  DATA 74,69
055E:  DATA 6E,67
0560:  DATA 2E,2E
0562:  DATA 2E,00
0564:  DATA 4E,41
0566:  DATA 4E,44
0568:  DATA 2D,34
056A:  DATA 20,42
056C:  DATA 75,65
056E:  DATA 6E,6F
0570:  DATA 21,00
0572:  DATA 37,34
0574:  DATA 4C,53
0576:  DATA 30,30
0578:  DATA 20,54
057A:  DATA 65,73
057C:  DATA 74,69
057E:  DATA 6E,67
0580:  DATA 2E,2E
0582:  DATA 2E,00
0584:  DATA 42,75
0586:  DATA 65,6E
0588:  DATA 6F,73
058A:  DATA 20,25
058C:  DATA 69,00
058E:  DATA 52,65
0590:  DATA 67,72
0592:  DATA 65,73
0594:  DATA 61,6E
0596:  DATA 64,6F
0598:  DATA 2E,2E
059A:  DATA 00,00
059C:  DATA 52,65
059E:  DATA 67,72
05A0:  DATA 65,73
05A2:  DATA 61,6E
05A4:  DATA 64,6F
05A6:  DATA 2E,2E
05A8:  DATA 00,00
05AA:  DATA 37,34
05AC:  DATA 4C,53
05AE:  DATA 30,31
05B0:  DATA 20,54
05B2:  DATA 65,73
05B4:  DATA 74,69
05B6:  DATA 6E,67
05B8:  DATA 2E,2E
05BA:  DATA 2E,00
05BC:  DATA 32,3E
05BE:  DATA 56,6F
05C0:  DATA 6C,76
05C2:  DATA 65,72
05C4:  DATA 00,00
05C6:  DATA 4E,41
05C8:  DATA 4E,44
05CA:  DATA 2D,31
05CC:  DATA 20,42
05CE:  DATA 75,65
05D0:  DATA 6E,6F
05D2:  DATA 21,00
05D4:  DATA 37,34
05D6:  DATA 4C,53
05D8:  DATA 30,31
05DA:  DATA 20,54
05DC:  DATA 65,73
05DE:  DATA 74,69
05E0:  DATA 6E,67
05E2:  DATA 2E,2E
05E4:  DATA 2E,00
05E6:  DATA 4E,41
05E8:  DATA 4E,44
05EA:  DATA 2D,32
05EC:  DATA 20,42
05EE:  DATA 75,65
05F0:  DATA 6E,6F
05F2:  DATA 21,00
05F4:  DATA 37,34
05F6:  DATA 4C,53
05F8:  DATA 30,31
05FA:  DATA 20,54
05FC:  DATA 65,73
05FE:  DATA 74,69
0600:  DATA 6E,67
0602:  DATA 2E,2E
0604:  DATA 2E,00
0606:  DATA 4E,41
0608:  DATA 4E,44
060A:  DATA 2D,33
060C:  DATA 20,42
060E:  DATA 75,65
0610:  DATA 6E,6F
0612:  DATA 21,00
0614:  DATA 37,34
0616:  DATA 4C,53
0618:  DATA 30,31
061A:  DATA 20,54
061C:  DATA 65,73
061E:  DATA 74,69
0620:  DATA 6E,67
0622:  DATA 2E,2E
0624:  DATA 2E,00
0626:  DATA 4E,41
0628:  DATA 4E,44
062A:  DATA 2D,34
062C:  DATA 20,42
062E:  DATA 75,65
0630:  DATA 6E,6F
0632:  DATA 21,00
0634:  DATA 37,34
0636:  DATA 4C,53
0638:  DATA 30,31
063A:  DATA 20,54
063C:  DATA 65,73
063E:  DATA 74,69
0640:  DATA 6E,67
0642:  DATA 2E,2E
0644:  DATA 2E,00
0646:  DATA 42,75
0648:  DATA 65,6E
064A:  DATA 6F,73
064C:  DATA 20,25
064E:  DATA 69,00
0650:  DATA 52,65
0652:  DATA 67,72
0654:  DATA 65,73
0656:  DATA 61,6E
0658:  DATA 64,6F
065A:  DATA 2E,2E
065C:  DATA 00,00
065E:  DATA 52,65
0660:  DATA 67,72
0662:  DATA 65,73
0664:  DATA 61,6E
0666:  DATA 64,6F
0668:  DATA 2E,2E
066A:  DATA 00,00
066C:  DATA 37,34
066E:  DATA 4C,53
0670:  DATA 30,34
0672:  DATA 20,54
0674:  DATA 65,73
0676:  DATA 74,69
0678:  DATA 6E,67
067A:  DATA 2E,2E
067C:  DATA 2E,00
067E:  DATA 32,3E
0680:  DATA 56,6F
0682:  DATA 6C,76
0684:  DATA 65,72
0686:  DATA 00,00
0688:  DATA 4E,4F
068A:  DATA 54,2D
068C:  DATA 31,20
068E:  DATA 42,75
0690:  DATA 65,6E
0692:  DATA 6F,21
0694:  DATA 00,00
0696:  DATA 37,34
0698:  DATA 4C,53
069A:  DATA 30,34
069C:  DATA 20,54
069E:  DATA 65,73
06A0:  DATA 74,69
06A2:  DATA 6E,67
06A4:  DATA 2E,2E
06A6:  DATA 2E,00
06A8:  DATA 4E,4F
06AA:  DATA 54,2D
06AC:  DATA 32,20
06AE:  DATA 42,75
06B0:  DATA 65,6E
06B2:  DATA 6F,21
06B4:  DATA 00,00
06B6:  DATA 37,34
06B8:  DATA 4C,53
06BA:  DATA 30,34
06BC:  DATA 20,54
06BE:  DATA 65,73
06C0:  DATA 74,69
06C2:  DATA 6E,67
06C4:  DATA 2E,2E
06C6:  DATA 2E,00
06C8:  DATA 4E,4F
06CA:  DATA 54,2D
06CC:  DATA 33,20
06CE:  DATA 42,75
06D0:  DATA 65,6E
06D2:  DATA 6F,21
06D4:  DATA 00,00
06D6:  DATA 37,34
06D8:  DATA 4C,53
06DA:  DATA 30,34
06DC:  DATA 20,54
06DE:  DATA 65,73
06E0:  DATA 74,69
06E2:  DATA 6E,67
06E4:  DATA 2E,2E
06E6:  DATA 2E,00
06E8:  DATA 4E,4F
06EA:  DATA 54,2D
06EC:  DATA 34,20
06EE:  DATA 42,75
06F0:  DATA 65,6E
06F2:  DATA 6F,21
06F4:  DATA 00,00
06F6:  DATA 37,34
06F8:  DATA 4C,53
06FA:  DATA 30,34
06FC:  DATA 20,54
06FE:  DATA 65,73
0700:  DATA 74,69
0702:  DATA 6E,67
0704:  DATA 2E,2E
0706:  DATA 2E,00
0708:  DATA 4E,4F
070A:  DATA 54,2D
070C:  DATA 35,20
070E:  DATA 42,75
0710:  DATA 65,6E
0712:  DATA 6F,21
0714:  DATA 00,00
0716:  DATA 37,34
0718:  DATA 4C,53
071A:  DATA 30,34
071C:  DATA 20,54
071E:  DATA 65,73
0720:  DATA 74,69
0722:  DATA 6E,67
0724:  DATA 2E,2E
0726:  DATA 2E,00
0728:  DATA 4E,4F
072A:  DATA 54,2D
072C:  DATA 36,20
072E:  DATA 42,75
0730:  DATA 65,6E
0732:  DATA 6F,21
0734:  DATA 00,00
0736:  DATA 37,34
0738:  DATA 4C,53
073A:  DATA 30,34
073C:  DATA 20,54
073E:  DATA 65,73
0740:  DATA 74,69
0742:  DATA 6E,67
0744:  DATA 2E,2E
0746:  DATA 2E,00
0748:  DATA 42,75
074A:  DATA 65,6E
074C:  DATA 6F,73
074E:  DATA 20,25
0750:  DATA 69,00
0752:  DATA 52,65
0754:  DATA 67,72
0756:  DATA 65,73
0758:  DATA 61,6E
075A:  DATA 64,6F
075C:  DATA 2E,2E
075E:  DATA 00,00
0760:  DATA 52,65
0762:  DATA 67,72
0764:  DATA 65,73
0766:  DATA 61,6E
0768:  DATA 64,6F
076A:  DATA 2E,2E
076C:  DATA 00,00
076E:  DATA 31,3E
0770:  DATA 37,34
0772:  DATA 30,37
0774:  DATA 20,32
0776:  DATA 3E,37
0778:  DATA 34,33
077A:  DATA 30,00
077C:  DATA 34,3E
077E:  DATA 37,34
0780:  DATA 31,30
0782:  DATA 20,33
0784:  DATA 3E,4E
0786:  DATA 65,78
0788:  DATA 74,00
078A:  DATA 37,34
078C:  DATA 4C,53
078E:  DATA 30,37
0790:  DATA 20,54
0792:  DATA 65,73
0794:  DATA 74,69
0796:  DATA 6E,67
0798:  DATA 2E,2E
079A:  DATA 2E,00
079C:  DATA 32,3E
079E:  DATA 56,6F
07A0:  DATA 6C,76
07A2:  DATA 65,72
07A4:  DATA 00,00
07A6:  DATA 42,55
07A8:  DATA 46,46
07AA:  DATA 45,52
07AC:  DATA 2D,31
07AE:  DATA 20,42
07B0:  DATA 75,65
07B2:  DATA 6E,6F
07B4:  DATA 21,00
07B6:  DATA 37,34
07B8:  DATA 4C,53
07BA:  DATA 30,37
07BC:  DATA 20,54
07BE:  DATA 65,73
07C0:  DATA 74,69
07C2:  DATA 6E,67
07C4:  DATA 2E,2E
07C6:  DATA 2E,00
07C8:  DATA 42,55
07CA:  DATA 46,46
07CC:  DATA 45,52
07CE:  DATA 2D,32
07D0:  DATA 20,42
07D2:  DATA 75,65
07D4:  DATA 6E,6F
07D6:  DATA 21,00
07D8:  DATA 37,34
07DA:  DATA 4C,53
07DC:  DATA 30,37
07DE:  DATA 20,54
07E0:  DATA 65,73
07E2:  DATA 74,69
07E4:  DATA 6E,67
07E6:  DATA 2E,2E
07E8:  DATA 2E,00
07EA:  DATA 42,55
07EC:  DATA 46,46
07EE:  DATA 45,52
07F0:  DATA 2D,33
07F2:  DATA 20,42
07F4:  DATA 75,65
07F6:  DATA 6E,6F
07F8:  DATA 21,00
07FA:  DATA 37,34
07FC:  DATA 4C,53
07FE:  DATA 30,37
0800:  DATA 20,54
0802:  DATA 65,73
0804:  DATA 74,69
0806:  DATA 6E,67
0808:  DATA 2E,2E
080A:  DATA 2E,00
080C:  DATA 42,55
080E:  DATA 46,46
0810:  DATA 45,52
0812:  DATA 2D,34
0814:  DATA 20,42
0816:  DATA 75,65
0818:  DATA 6E,6F
081A:  DATA 21,00
081C:  DATA 37,34
081E:  DATA 4C,53
0820:  DATA 30,37
0822:  DATA 20,54
0824:  DATA 65,73
0826:  DATA 74,69
0828:  DATA 6E,67
082A:  DATA 2E,2E
082C:  DATA 2E,00
082E:  DATA 42,55
0830:  DATA 46,46
0832:  DATA 45,52
0834:  DATA 2D,35
0836:  DATA 20,42
0838:  DATA 75,65
083A:  DATA 6E,6F
083C:  DATA 21,00
083E:  DATA 37,34
0840:  DATA 4C,53
0842:  DATA 30,37
0844:  DATA 20,54
0846:  DATA 65,73
0848:  DATA 74,69
084A:  DATA 6E,67
084C:  DATA 2E,2E
084E:  DATA 2E,00
0850:  DATA 42,55
0852:  DATA 46,46
0854:  DATA 45,52
0856:  DATA 2D,36
0858:  DATA 20,42
085A:  DATA 75,65
085C:  DATA 6E,6F
085E:  DATA 21,00
0860:  DATA 37,34
0862:  DATA 4C,53
0864:  DATA 30,37
0866:  DATA 20,54
0868:  DATA 65,73
086A:  DATA 74,69
086C:  DATA 6E,67
086E:  DATA 2E,2E
0870:  DATA 2E,00
0872:  DATA 42,75
0874:  DATA 65,6E
0876:  DATA 6F,73
0878:  DATA 20,25
087A:  DATA 69,00
087C:  DATA 52,65
087E:  DATA 67,72
0880:  DATA 65,73
0882:  DATA 61,6E
0884:  DATA 64,6F
0886:  DATA 2E,2E
0888:  DATA 00,00
088A:  DATA 37,34
088C:  DATA 4C,53
088E:  DATA 31,30
0890:  DATA 20,54
0892:  DATA 65,73
0894:  DATA 74,69
0896:  DATA 6E,67
0898:  DATA 2E,2E
089A:  DATA 2E,00
089C:  DATA 32,3E
089E:  DATA 56,6F
08A0:  DATA 6C,76
08A2:  DATA 65,72
08A4:  DATA 00,00
08A6:  DATA 4E,41
08A8:  DATA 4E,44
08AA:  DATA 2D,31
08AC:  DATA 20,42
08AE:  DATA 75,65
08B0:  DATA 6E,6F
08B2:  DATA 21,00
08B4:  DATA 37,34
08B6:  DATA 4C,53
08B8:  DATA 31,30
08BA:  DATA 20,54
08BC:  DATA 65,73
08BE:  DATA 74,69
08C0:  DATA 6E,67
08C2:  DATA 2E,2E
08C4:  DATA 2E,00
08C6:  DATA 4E,41
08C8:  DATA 4E,44
08CA:  DATA 2D,32
08CC:  DATA 20,42
08CE:  DATA 75,65
08D0:  DATA 6E,6F
08D2:  DATA 21,00
08D4:  DATA 37,34
08D6:  DATA 4C,53
08D8:  DATA 31,30
08DA:  DATA 20,54
08DC:  DATA 65,73
08DE:  DATA 74,69
08E0:  DATA 6E,67
08E2:  DATA 2E,2E
08E4:  DATA 2E,00
08E6:  DATA 4E,41
08E8:  DATA 4E,44
08EA:  DATA 2D,33
08EC:  DATA 20,42
08EE:  DATA 75,65
08F0:  DATA 6E,6F
08F2:  DATA 21,00
08F4:  DATA 37,34
08F6:  DATA 4C,53
08F8:  DATA 31,30
08FA:  DATA 20,54
08FC:  DATA 65,73
08FE:  DATA 74,69
0900:  DATA 6E,67
0902:  DATA 2E,2E
0904:  DATA 2E,00
0906:  DATA 42,75
0908:  DATA 65,6E
090A:  DATA 6F,73
090C:  DATA 20,25
090E:  DATA 69,00
0910:  DATA 52,65
0912:  DATA 67,72
0914:  DATA 65,73
0916:  DATA 61,6E
0918:  DATA 64,6F
091A:  DATA 2E,2E
091C:  DATA 00,00
091E:  DATA 37,34
0920:  DATA 4C,53
0922:  DATA 33,30
0924:  DATA 20,54
0926:  DATA 65,73
0928:  DATA 74,69
092A:  DATA 6E,67
092C:  DATA 2E,2E
092E:  DATA 2E,00
0930:  DATA 32,3E
0932:  DATA 56,6F
0934:  DATA 6C,76
0936:  DATA 65,72
0938:  DATA 00,00
093A:  DATA 37,34
093C:  DATA 4C,53
093E:  DATA 33,30
0940:  DATA 20,42
0942:  DATA 75,65
0944:  DATA 6E,6F
0946:  DATA 21,00
0948:  DATA 52,65
094A:  DATA 67,72
094C:  DATA 65,73
094E:  DATA 61,6E
0950:  DATA 64,6F
0952:  DATA 2E,2E
0954:  DATA 2E,00
0956:  DATA 52,65
0958:  DATA 67,72
095A:  DATA 65,73
095C:  DATA 61,6E
095E:  DATA 64,6F
0960:  DATA 2E,2E
0962:  DATA 2E,00
0964:  DATA 31,3E
0966:  DATA 37,34
0968:  DATA 32,30
096A:  DATA 20,32
096C:  DATA 3E,37
096E:  DATA 34,32
0970:  DATA 31,00
0972:  DATA 34,3E
0974:  DATA 37,34
0976:  DATA 31,31
0978:  DATA 20,33
097A:  DATA 3E,5B
097C:  DATA 4D,65
097E:  DATA 6E,75
0980:  DATA 5D,00
0982:  DATA 37,34
0984:  DATA 4C,53
0986:  DATA 31,31
0988:  DATA 20,54
098A:  DATA 65,73
098C:  DATA 74,69
098E:  DATA 6E,67
0990:  DATA 2E,2E
0992:  DATA 2E,00
0994:  DATA 32,3E
0996:  DATA 56,6F
0998:  DATA 6C,76
099A:  DATA 65,72
099C:  DATA 00,00
099E:  DATA 41,4E
09A0:  DATA 44,2D
09A2:  DATA 31,20
09A4:  DATA 42,75
09A6:  DATA 65,6E
09A8:  DATA 6F,21
09AA:  DATA 00,00
09AC:  DATA 37,34
09AE:  DATA 4C,53
09B0:  DATA 31,31
09B2:  DATA 20,54
09B4:  DATA 65,73
09B6:  DATA 74,69
09B8:  DATA 6E,67
09BA:  DATA 2E,2E
09BC:  DATA 2E,00
09BE:  DATA 41,4E
09C0:  DATA 44,2D
09C2:  DATA 32,20
09C4:  DATA 42,75
09C6:  DATA 65,6E
09C8:  DATA 6F,21
09CA:  DATA 00,00
09CC:  DATA 37,34
09CE:  DATA 4C,53
09D0:  DATA 31,31
09D2:  DATA 20,54
09D4:  DATA 65,73
09D6:  DATA 74,69
09D8:  DATA 6E,67
09DA:  DATA 2E,2E
09DC:  DATA 2E,00
09DE:  DATA 41,4E
09E0:  DATA 44,2D
09E2:  DATA 33,20
09E4:  DATA 42,75
09E6:  DATA 65,6E
09E8:  DATA 6F,21
09EA:  DATA 00,00
09EC:  DATA 37,34
09EE:  DATA 4C,53
09F0:  DATA 31,31
09F2:  DATA 20,54
09F4:  DATA 65,73
09F6:  DATA 74,69
09F8:  DATA 6E,67
09FA:  DATA 2E,2E
09FC:  DATA 2E,00
09FE:  DATA 42,75
0A00:  DATA 65,6E
0A02:  DATA 6F,73
0A04:  DATA 20,25
0A06:  DATA 69,00
0A08:  DATA 52,65
0A0A:  DATA 67,72
0A0C:  DATA 65,73
0A0E:  DATA 61,6E
0A10:  DATA 64,6F
0A12:  DATA 2E,2E
0A14:  DATA 00,00
0A16:  DATA 37,34
0A18:  DATA 4C,53
0A1A:  DATA 32,30
0A1C:  DATA 20,54
0A1E:  DATA 65,73
0A20:  DATA 74,69
0A22:  DATA 6E,67
0A24:  DATA 2E,2E
0A26:  DATA 2E,00
0A28:  DATA 32,3E
0A2A:  DATA 56,6F
0A2C:  DATA 6C,76
0A2E:  DATA 65,72
0A30:  DATA 00,00
0A32:  DATA 4E,41
0A34:  DATA 4E,44
0A36:  DATA 2D,31
0A38:  DATA 20,42
0A3A:  DATA 75,65
0A3C:  DATA 6E,6F
0A3E:  DATA 21,00
0A40:  DATA 37,34
0A42:  DATA 4C,53
0A44:  DATA 32,30
0A46:  DATA 20,54
0A48:  DATA 65,73
0A4A:  DATA 74,69
0A4C:  DATA 6E,67
0A4E:  DATA 2E,2E
0A50:  DATA 2E,00
0A52:  DATA 4E,41
0A54:  DATA 4E,44
0A56:  DATA 2D,32
0A58:  DATA 20,42
0A5A:  DATA 75,65
0A5C:  DATA 6E,6F
0A5E:  DATA 21,00
0A60:  DATA 37,34
0A62:  DATA 4C,53
0A64:  DATA 32,30
0A66:  DATA 20,54
0A68:  DATA 65,73
0A6A:  DATA 74,69
0A6C:  DATA 6E,67
0A6E:  DATA 2E,2E
0A70:  DATA 2E,00
0A72:  DATA 42,75
0A74:  DATA 65,6E
0A76:  DATA 6F,73
0A78:  DATA 20,25
0A7A:  DATA 69,00
0A7C:  DATA 52,65
0A7E:  DATA 67,72
0A80:  DATA 65,73
0A82:  DATA 61,6E
0A84:  DATA 64,6F
0A86:  DATA 2E,2E
0A88:  DATA 00,00
0A8A:  DATA 37,34
0A8C:  DATA 4C,53
0A8E:  DATA 32,31
0A90:  DATA 20,54
0A92:  DATA 65,73
0A94:  DATA 74,69
0A96:  DATA 6E,67
0A98:  DATA 2E,2E
0A9A:  DATA 2E,00
0A9C:  DATA 32,3E
0A9E:  DATA 56,6F
0AA0:  DATA 6C,76
0AA2:  DATA 65,72
0AA4:  DATA 00,00
0AA6:  DATA 41,4E
0AA8:  DATA 44,2D
0AAA:  DATA 31,20
0AAC:  DATA 42,75
0AAE:  DATA 65,6E
0AB0:  DATA 6F,21
0AB2:  DATA 00,00
0AB4:  DATA 37,34
0AB6:  DATA 4C,53
0AB8:  DATA 32,31
0ABA:  DATA 20,54
0ABC:  DATA 65,73
0ABE:  DATA 74,69
0AC0:  DATA 6E,67
0AC2:  DATA 2E,2E
0AC4:  DATA 2E,00
0AC6:  DATA 41,4E
0AC8:  DATA 44,2D
0ACA:  DATA 32,20
0ACC:  DATA 42,75
0ACE:  DATA 65,6E
0AD0:  DATA 6F,21
0AD2:  DATA 00,00
0AD4:  DATA 20,37
0AD6:  DATA 34,4C
0AD8:  DATA 53,32
0ADA:  DATA 31,20
0ADC:  DATA 54,65
0ADE:  DATA 73,74
0AE0:  DATA 69,6E
0AE2:  DATA 67,2E
0AE4:  DATA 2E,2E
0AE6:  DATA 00,00
0AE8:  DATA 42,75
0AEA:  DATA 65,6E
0AEC:  DATA 6F,73
0AEE:  DATA 20,25
0AF0:  DATA 69,00
0AF2:  DATA 52,65
0AF4:  DATA 67,72
0AF6:  DATA 65,73
0AF8:  DATA 61,6E
0AFA:  DATA 64,6F
0AFC:  DATA 2E,2E
0AFE:  DATA 00,00
0B00:  DATA 20,41
0B02:  DATA 44,36
0B04:  DATA 32,30
0B06:  DATA 20,54
0B08:  DATA 65,73
0B0A:  DATA 74,69
0B0C:  DATA 6E,67
0B0E:  DATA 2E,2E
0B10:  DATA 2E,00
0B12:  DATA 20,56
0B14:  DATA 3A,25
0B16:  DATA 30,2E
0B18:  DATA 32,66
0B1A:  DATA 2E,20
0B1C:  DATA 32,3E
0B1E:  DATA 52,65
0B20:  DATA 74,00
0B22:  DATA 52,65
0B24:  DATA 67,72
0B26:  DATA 65,73
0B28:  DATA 61,6E
0B2A:  DATA 64,6F
0B2C:  DATA 2E,2E
0B2E:  DATA 00,00
0B30:  DATA 31,3E
0B32:  DATA 35,35
0B34:  DATA 35,20
0B36:  DATA 32,3E
0B38:  DATA 4C,4D
0B3A:  DATA 32,32
0B3C:  DATA 34,00
0B3E:  DATA 34,3E
0B40:  DATA 37,34
0B42:  DATA 31,20
0B44:  DATA 33,3E
0B46:  DATA 4E,65
0B48:  DATA 78,74
0B4A:  DATA 00,00
0B4C:  DATA 35,35
0B4E:  DATA 35,20
0B50:  DATA 54,65
0B52:  DATA 73,74
0B54:  DATA 69,6E
0B56:  DATA 67,2E
0B58:  DATA 2E,2E
0B5A:  DATA 00,00
0B5C:  DATA 32,3E
0B5E:  DATA 56,6F
0B60:  DATA 6C,76
0B62:  DATA 65,72
0B64:  DATA 00,00
0B66:  DATA 52,65
0B68:  DATA 67,72
0B6A:  DATA 65,73
0B6C:  DATA 61,6E
0B6E:  DATA 64,6F
0B70:  DATA 2E,2E
0B72:  DATA 00,00
0B74:  DATA 54,69
0B76:  DATA 65,6D
0B78:  DATA 70,6F
0B7A:  DATA 3A,20
0B7C:  DATA 25,6C
0B7E:  DATA 75,00
0B80:  DATA 4D,61
0B82:  DATA 6C,6F
0B84:  DATA 20,25
0B86:  DATA 69,00
0B88:  DATA 32,3E
0B8A:  DATA 56,6F
0B8C:  DATA 6C,76
0B8E:  DATA 65,72
0B90:  DATA 00,00
0B92:  DATA 52,65
0B94:  DATA 67,72
0B96:  DATA 65,73
0B98:  DATA 61,6E
0B9A:  DATA 64,6F
0B9C:  DATA 2E,2E
0B9E:  DATA 00,00
0BA0:  DATA 42,75
0BA2:  DATA 65,6E
0BA4:  DATA 6F,20
0BA6:  DATA 25,69
0BA8:  DATA 00,00
0BAA:  DATA 32,3E
0BAC:  DATA 56,6F
0BAE:  DATA 6C,76
0BB0:  DATA 65,72
0BB2:  DATA 00,00
0BB4:  DATA 52,65
0BB6:  DATA 67,72
0BB8:  DATA 65,73
0BBA:  DATA 61,6E
0BBC:  DATA 64,6F
0BBE:  DATA 2E,2E
0BC0:  DATA 00,00
0BC2:  DATA 4C,4D
0BC4:  DATA 32,32
0BC6:  DATA 34,20
0BC8:  DATA 54,65
0BCA:  DATA 73,74
0BCC:  DATA 69,6E
0BCE:  DATA 67,2E
0BD0:  DATA 2E,2E
0BD2:  DATA 00,00
0BD4:  DATA 32,3E
0BD6:  DATA 56,6F
0BD8:  DATA 6C,76
0BDA:  DATA 65,72
0BDC:  DATA 00,00
0BDE:  DATA 41,6D
0BE0:  DATA 70,4F
0BE2:  DATA 70,2D
0BE4:  DATA 31,20
0BE6:  DATA 42,75
0BE8:  DATA 65,6E
0BEA:  DATA 6F,21
0BEC:  DATA 00,00
0BEE:  DATA 4C,4D
0BF0:  DATA 32,32
0BF2:  DATA 34,20
0BF4:  DATA 54,65
0BF6:  DATA 73,74
0BF8:  DATA 69,6E
0BFA:  DATA 67,2E
0BFC:  DATA 2E,2E
0BFE:  DATA 00,00
0C00:  DATA 41,6D
0C02:  DATA 70,4F
0C04:  DATA 70,2D
0C06:  DATA 32,20
0C08:  DATA 42,75
0C0A:  DATA 65,6E
0C0C:  DATA 6F,21
0C0E:  DATA 00,00
0C10:  DATA 4C,4D
0C12:  DATA 32,32
0C14:  DATA 34,20
0C16:  DATA 54,65
0C18:  DATA 73,74
0C1A:  DATA 69,6E
0C1C:  DATA 67,2E
0C1E:  DATA 2E,2E
0C20:  DATA 00,00
0C22:  DATA 41,6D
0C24:  DATA 70,4F
0C26:  DATA 70,2D
0C28:  DATA 33,20
0C2A:  DATA 42,75
0C2C:  DATA 65,6E
0C2E:  DATA 6F,21
0C30:  DATA 00,00
0C32:  DATA 4C,4D
0C34:  DATA 32,32
0C36:  DATA 34,20
0C38:  DATA 54,65
0C3A:  DATA 73,74
0C3C:  DATA 69,6E
0C3E:  DATA 67,2E
0C40:  DATA 2E,2E
0C42:  DATA 00,00
0C44:  DATA 41,6D
0C46:  DATA 70,4F
0C48:  DATA 70,2D
0C4A:  DATA 34,20
0C4C:  DATA 42,75
0C4E:  DATA 65,6E
0C50:  DATA 6F,21
0C52:  DATA 00,00
0C54:  DATA 4C,4D
0C56:  DATA 32,32
0C58:  DATA 34,20
0C5A:  DATA 54,65
0C5C:  DATA 73,74
0C5E:  DATA 69,6E
0C60:  DATA 67,2E
0C62:  DATA 2E,2E
0C64:  DATA 00,00
0C66:  DATA 42,75
0C68:  DATA 65,6E
0C6A:  DATA 6F,73
0C6C:  DATA 20,25
0C6E:  DATA 69,00
0C70:  DATA 52,65
0C72:  DATA 67,72
0C74:  DATA 65,73
0C76:  DATA 61,6E
0C78:  DATA 64,6F
0C7A:  DATA 2E,2E
0C7C:  DATA 00,00
0C7E:  DATA 52,65
0C80:  DATA 67,72
0C82:  DATA 65,73
0C84:  DATA 61,6E
0C86:  DATA 64,6F
0C88:  DATA 2E,2E
0C8A:  DATA 2E,00
0C8C:  DATA 37,34
0C8E:  DATA 31,20
0C90:  DATA 54,65
0C92:  DATA 73,74
0C94:  DATA 69,6E
0C96:  DATA 67,2E
0C98:  DATA 2E,2E
0C9A:  DATA 00,00
0C9C:  DATA 32,3E
0C9E:  DATA 56,6F
0CA0:  DATA 6C,76
0CA2:  DATA 65,72
0CA4:  DATA 00,00
0CA6:  DATA 41,6D
0CA8:  DATA 70,4F
0CAA:  DATA 70,20
0CAC:  DATA 42,75
0CAE:  DATA 65,6E
0CB0:  DATA 6F,21
0CB2:  DATA 00,00
0CB4:  DATA 52,65
0CB6:  DATA 67,72
0CB8:  DATA 65,73
0CBA:  DATA 61,6E
0CBC:  DATA 64,6F
0CBE:  DATA 2E,2E
0CC0:  DATA 2E,00
0CC2:  DATA 52,65
0CC4:  DATA 67,72
0CC6:  DATA 65,73
0CC8:  DATA 61,6E
0CCA:  DATA 64,6F
0CCC:  DATA 2E,2E
0CCE:  DATA 2E,00
0CD0:  DATA 31,3E
0CD2:  DATA 4C,4D
0CD4:  DATA 33,35
0CD6:  DATA 38,20
0CD8:  DATA 32,3E
0CDA:  DATA 4C,4D
0CDC:  DATA 33,34
0CDE:  DATA 38,00
0CE0:  DATA 34,3E
0CE2:  DATA 4C,4D
0CE4:  DATA 33,32
0CE6:  DATA 34,20
0CE8:  DATA 33,3E
0CEA:  DATA 4E,65
0CEC:  DATA 78,74
0CEE:  DATA 00,00
0CF0:  DATA 4C,4D
0CF2:  DATA 33,35
0CF4:  DATA 38,20
0CF6:  DATA 54,65
0CF8:  DATA 73,74
0CFA:  DATA 69,6E
0CFC:  DATA 67,2E
0CFE:  DATA 2E,2E
0D00:  DATA 00,00
0D02:  DATA 32,3E
0D04:  DATA 56,6F
0D06:  DATA 6C,76
0D08:  DATA 65,72
0D0A:  DATA 00,00
0D0C:  DATA 41,6D
0D0E:  DATA 70,4F
0D10:  DATA 70,2D
0D12:  DATA 31,20
0D14:  DATA 42,75
0D16:  DATA 65,6E
0D18:  DATA 6F,21
0D1A:  DATA 00,00
0D1C:  DATA 4C,4D
0D1E:  DATA 33,35
0D20:  DATA 38,20
0D22:  DATA 54,65
0D24:  DATA 73,74
0D26:  DATA 69,6E
0D28:  DATA 67,2E
0D2A:  DATA 2E,2E
0D2C:  DATA 00,00
0D2E:  DATA 41,6D
0D30:  DATA 70,4F
0D32:  DATA 70,2D
0D34:  DATA 32,20
0D36:  DATA 42,75
0D38:  DATA 65,6E
0D3A:  DATA 6F,21
0D3C:  DATA 00,00
0D3E:  DATA 4C,4D
0D40:  DATA 33,35
0D42:  DATA 38,20
0D44:  DATA 54,65
0D46:  DATA 73,74
0D48:  DATA 69,6E
0D4A:  DATA 67,2E
0D4C:  DATA 2E,2E
0D4E:  DATA 00,00
0D50:  DATA 42,75
0D52:  DATA 65,6E
0D54:  DATA 6F,73
0D56:  DATA 20,25
0D58:  DATA 69,00
0D5A:  DATA 52,65
0D5C:  DATA 67,72
0D5E:  DATA 65,73
0D60:  DATA 61,6E
0D62:  DATA 64,6F
0D64:  DATA 2E,2E
0D66:  DATA 00,00
0D68:  DATA 52,65
0D6A:  DATA 67,72
0D6C:  DATA 65,73
0D6E:  DATA 61,6E
0D70:  DATA 64,6F
0D72:  DATA 2E,2E
0D74:  DATA 2E,00
0D76:  DATA 4C,4D
0D78:  DATA 33,34
0D7A:  DATA 38,20
0D7C:  DATA 54,65
0D7E:  DATA 73,74
0D80:  DATA 69,6E
0D82:  DATA 67,2E
0D84:  DATA 2E,2E
0D86:  DATA 00,00
0D88:  DATA 32,3E
0D8A:  DATA 56,6F
0D8C:  DATA 6C,76
0D8E:  DATA 65,72
0D90:  DATA 00,00
0D92:  DATA 41,6D
0D94:  DATA 70,4F
0D96:  DATA 70,2D
0D98:  DATA 31,20
0D9A:  DATA 42,75
0D9C:  DATA 65,6E
0D9E:  DATA 6F,21
0DA0:  DATA 00,00
0DA2:  DATA 4C,4D
0DA4:  DATA 33,34
0DA6:  DATA 38,20
0DA8:  DATA 54,65
0DAA:  DATA 73,74
0DAC:  DATA 69,6E
0DAE:  DATA 67,2E
0DB0:  DATA 2E,2E
0DB2:  DATA 00,00
0DB4:  DATA 41,6D
0DB6:  DATA 70,4F
0DB8:  DATA 70,2D
0DBA:  DATA 32,20
0DBC:  DATA 42,75
0DBE:  DATA 65,6E
0DC0:  DATA 6F,21
0DC2:  DATA 00,00
0DC4:  DATA 4C,4D
0DC6:  DATA 33,34
0DC8:  DATA 38,20
0DCA:  DATA 54,65
0DCC:  DATA 73,74
0DCE:  DATA 69,6E
0DD0:  DATA 67,2E
0DD2:  DATA 2E,2E
0DD4:  DATA 00,00
0DD6:  DATA 41,6D
0DD8:  DATA 70,4F
0DDA:  DATA 70,2D
0DDC:  DATA 33,20
0DDE:  DATA 42,75
0DE0:  DATA 65,6E
0DE2:  DATA 6F,21
0DE4:  DATA 00,00
0DE6:  DATA 4C,4D
0DE8:  DATA 33,34
0DEA:  DATA 38,20
0DEC:  DATA 54,65
0DEE:  DATA 73,74
0DF0:  DATA 69,6E
0DF2:  DATA 67,2E
0DF4:  DATA 2E,2E
0DF6:  DATA 00,00
0DF8:  DATA 41,6D
0DFA:  DATA 70,4F
0DFC:  DATA 70,2D
0DFE:  DATA 34,20
0E00:  DATA 42,75
0E02:  DATA 65,6E
0E04:  DATA 6F,21
0E06:  DATA 00,00
0E08:  DATA 20,4C
0E0A:  DATA 4D,33
0E0C:  DATA 34,38
0E0E:  DATA 20,54
0E10:  DATA 65,73
0E12:  DATA 74,69
0E14:  DATA 6E,67
0E16:  DATA 2E,2E
0E18:  DATA 2E,00
0E1A:  DATA 42,75
0E1C:  DATA 65,6E
0E1E:  DATA 6F,73
0E20:  DATA 20,25
0E22:  DATA 69,00
0E24:  DATA 52,65
0E26:  DATA 67,72
0E28:  DATA 65,73
0E2A:  DATA 61,6E
0E2C:  DATA 64,6F
0E2E:  DATA 2E,2E
0E30:  DATA 00,00
0E32:  DATA 52,65
0E34:  DATA 67,72
0E36:  DATA 65,73
0E38:  DATA 61,6E
0E3A:  DATA 64,6F
0E3C:  DATA 2E,2E
0E3E:  DATA 2E,00
0E40:  DATA 4C,4D
0E42:  DATA 33,32
0E44:  DATA 34,20
0E46:  DATA 54,65
0E48:  DATA 73,74
0E4A:  DATA 69,6E
0E4C:  DATA 67,2E
0E4E:  DATA 2E,2E
0E50:  DATA 00,00
0E52:  DATA 32,3E
0E54:  DATA 56,6F
0E56:  DATA 6C,76
0E58:  DATA 65,72
0E5A:  DATA 00,00
0E5C:  DATA 41,6D
0E5E:  DATA 70,4F
0E60:  DATA 70,2D
0E62:  DATA 31,20
0E64:  DATA 42,75
0E66:  DATA 65,6E
0E68:  DATA 6F,21
0E6A:  DATA 00,00
0E6C:  DATA 4C,4D
0E6E:  DATA 33,32
0E70:  DATA 34,20
0E72:  DATA 54,65
0E74:  DATA 73,74
0E76:  DATA 69,6E
0E78:  DATA 67,2E
0E7A:  DATA 2E,2E
0E7C:  DATA 00,00
0E7E:  DATA 41,6D
0E80:  DATA 70,4F
0E82:  DATA 70,2D
0E84:  DATA 32,20
0E86:  DATA 42,75
0E88:  DATA 65,6E
0E8A:  DATA 6F,21
0E8C:  DATA 00,00
0E8E:  DATA 4C,4D
0E90:  DATA 33,32
0E92:  DATA 34,20
0E94:  DATA 54,65
0E96:  DATA 73,74
0E98:  DATA 69,6E
0E9A:  DATA 67,2E
0E9C:  DATA 2E,2E
0E9E:  DATA 00,00
0EA0:  DATA 41,6D
0EA2:  DATA 70,4F
0EA4:  DATA 70,2D
0EA6:  DATA 33,20
0EA8:  DATA 42,75
0EAA:  DATA 65,6E
0EAC:  DATA 6F,21
0EAE:  DATA 00,00
0EB0:  DATA 4C,4D
0EB2:  DATA 33,32
0EB4:  DATA 34,20
0EB6:  DATA 54,65
0EB8:  DATA 73,74
0EBA:  DATA 69,6E
0EBC:  DATA 67,2E
0EBE:  DATA 2E,2E
0EC0:  DATA 00,00
0EC2:  DATA 41,6D
0EC4:  DATA 70,4F
0EC6:  DATA 70,2D
0EC8:  DATA 34,20
0ECA:  DATA 42,75
0ECC:  DATA 65,6E
0ECE:  DATA 6F,21
0ED0:  DATA 00,00
0ED2:  DATA 4C,4D
0ED4:  DATA 33,32
0ED6:  DATA 34,20
0ED8:  DATA 54,65
0EDA:  DATA 73,74
0EDC:  DATA 69,6E
0EDE:  DATA 67,2E
0EE0:  DATA 2E,2E
0EE2:  DATA 00,00
0EE4:  DATA 42,75
0EE6:  DATA 65,6E
0EE8:  DATA 6F,73
0EEA:  DATA 20,25
0EEC:  DATA 69,00
0EEE:  DATA 52,65
0EF0:  DATA 67,72
0EF2:  DATA 65,73
0EF4:  DATA 61,6E
0EF6:  DATA 64,6F
0EF8:  DATA 2E,2E
0EFA:  DATA 2E,00
0EFC:  DATA 52,65
0EFE:  DATA 67,72
0F00:  DATA 65,73
0F02:  DATA 61,6E
0F04:  DATA 64,6F
0F06:  DATA 2E,2E
0F08:  DATA 2E,00
0F0A:  DATA 31,3E
0F0C:  DATA 4E,50
0F0E:  DATA 4E,20
0F10:  DATA 32,3E
0F12:  DATA 50,4E
0F14:  DATA 50,00
0F16:  DATA 33,3E
0F18:  DATA 4E,65
0F1A:  DATA 78,74
0F1C:  DATA 00,00
0F1E:  DATA 4E,50
0F20:  DATA 4E,20
0F22:  DATA 54,65
0F24:  DATA 73,74
0F26:  DATA 69,6E
0F28:  DATA 67,2E
0F2A:  DATA 2E,2E
0F2C:  DATA 00,00
0F2E:  DATA 32,3E
0F30:  DATA 56,6F
0F32:  DATA 6C,76
0F34:  DATA 65,72
0F36:  DATA 00,00
0F38:  DATA 4E,50
0F3A:  DATA 4E,20
0F3C:  DATA 42,55
0F3E:  DATA 45,4E
0F40:  DATA 4F,00
0F42:  DATA 52,65
0F44:  DATA 67,72
0F46:  DATA 65,73
0F48:  DATA 61,6E
0F4A:  DATA 64,6F
0F4C:  DATA 2E,2E
0F4E:  DATA 2E,00
0F50:  DATA 52,65
0F52:  DATA 67,72
0F54:  DATA 65,73
0F56:  DATA 61,6E
0F58:  DATA 64,6F
0F5A:  DATA 2E,2E
0F5C:  DATA 2E,00
0F5E:  DATA 50,4E
0F60:  DATA 50,20
0F62:  DATA 54,65
0F64:  DATA 73,74
0F66:  DATA 69,6E
0F68:  DATA 67,2E
0F6A:  DATA 2E,2E
0F6C:  DATA 00,00
0F6E:  DATA 32,3E
0F70:  DATA 56,6F
0F72:  DATA 6C,76
0F74:  DATA 65,72
0F76:  DATA 00,00
0F78:  DATA 50,4E
0F7A:  DATA 50,20
0F7C:  DATA 42,55
0F7E:  DATA 45,4E
0F80:  DATA 4F,00
0F82:  DATA 52,65
0F84:  DATA 67,72
0F86:  DATA 65,73
0F88:  DATA 61,6E
0F8A:  DATA 64,6F
0F8C:  DATA 2E,2E
0F8E:  DATA 2E,00
0F90:  DATA 52,65
0F92:  DATA 67,72
0F94:  DATA 65,73
0F96:  DATA 61,6E
0F98:  DATA 64,6F
0F9A:  DATA 2E,2E
0F9C:  DATA 2E,00
0F9E:  DATA 31,3E
0FA0:  DATA 4D,4F
0FA2:  DATA 53,46
0FA4:  DATA 20,4E
0FA6:  DATA 00,00
0FA8:  DATA 32,3E
0FAA:  DATA 4D,4F
0FAC:  DATA 53,46
0FAE:  DATA 20,50
0FB0:  DATA 20,33
0FB2:  DATA 3E,4E
0FB4:  DATA 65,78
0FB6:  DATA 74,00
0FB8:  DATA 4D,4F
0FBA:  DATA 53,46
0FBC:  DATA 45,54
0FBE:  DATA 20,54
0FC0:  DATA 65,73
0FC2:  DATA 74,69
0FC4:  DATA 6E,67
0FC6:  DATA 2E,2E
0FC8:  DATA 2E,00
0FCA:  DATA 32,3E
0FCC:  DATA 56,6F
0FCE:  DATA 6C,76
0FD0:  DATA 65,72
0FD2:  DATA 00,00
0FD4:  DATA 4D,4F
0FD6:  DATA 53,46
0FD8:  DATA 45,54
0FDA:  DATA 20,42
0FDC:  DATA 55,45
0FDE:  DATA 4E,4F
0FE0:  DATA 00,00
0FE2:  DATA 52,65
0FE4:  DATA 67,72
0FE6:  DATA 65,73
0FE8:  DATA 61,6E
0FEA:  DATA 64,6F
0FEC:  DATA 2E,2E
0FEE:  DATA 2E,00
0FF0:  DATA 52,65
0FF2:  DATA 67,72
0FF4:  DATA 65,73
0FF6:  DATA 61,6E
0FF8:  DATA 64,6F
0FFA:  DATA 2E,2E
0FFC:  DATA 2E,00
0FFE:  DATA 4D,4F
1000:  DATA 53,46
1002:  DATA 45,54
1004:  DATA 20,54
1006:  DATA 65,73
1008:  DATA 74,69
100A:  DATA 6E,67
100C:  DATA 2E,2E
100E:  DATA 2E,00
1010:  DATA 32,3E
1012:  DATA 56,6F
1014:  DATA 6C,76
1016:  DATA 65,72
1018:  DATA 00,00
101A:  DATA 4D,4F
101C:  DATA 53,46
101E:  DATA 45,54
1020:  DATA 20,42
1022:  DATA 55,45
1024:  DATA 4E,4F
1026:  DATA 00,00
1028:  DATA 52,65
102A:  DATA 67,72
102C:  DATA 65,73
102E:  DATA 61,6E
1030:  DATA 64,6F
1032:  DATA 2E,2E
1034:  DATA 2E,00
1036:  DATA 52,65
1038:  DATA 67,72
103A:  DATA 65,73
103C:  DATA 61,6E
103E:  DATA 64,6F
1040:  DATA 2E,2E
1042:  DATA 2E,00
1044:  DATA 31,3E
1046:  DATA 4D,4F
1048:  DATA 43,33
104A:  DATA 30,32
104C:  DATA 30,2F
104E:  DATA 33,30
1050:  DATA 31,30
1052:  DATA 20,00
1054:  DATA 33,3E
1056:  DATA 4E,65
1058:  DATA 78,74
105A:  DATA 00,00
105C:  DATA 4D,4F
105E:  DATA 43,20
1060:  DATA 54,65
1062:  DATA 73,74
1064:  DATA 69,6E
1066:  DATA 67,2E
1068:  DATA 2E,2E
106A:  DATA 00,00
106C:  DATA 32,3E
106E:  DATA 56,6F
1070:  DATA 6C,76
1072:  DATA 65,72
1074:  DATA 00,00
1076:  DATA 4D,4F
1078:  DATA 43,20
107A:  DATA 42,55
107C:  DATA 45,4E
107E:  DATA 4F,00
1080:  DATA 52,65
1082:  DATA 67,72
1084:  DATA 65,73
1086:  DATA 61,6E
1088:  DATA 64,6F
108A:  DATA 2E,2E
108C:  DATA 2E,00
108E:  DATA 52,65
1090:  DATA 67,72
1092:  DATA 65,73
1094:  DATA 61,6E
1096:  DATA 64,6F
1098:  DATA 2E,2E
109A:  DATA 2E,00
*
1362:  TBLRD*+
1364:  MOVF   FF5,F
1366:  BZ    1380
1368:  MOVFF  FF6,40
136C:  MOVFF  FF7,41
1370:  MOVFF  FF5,50
1374:  RCALL  1320
1376:  MOVFF  40,FF6
137A:  MOVFF  41,FF7
137E:  BRA    1362
1380:  RETURN 0
*
13DC:  TBLRD*+
13DE:  MOVFF  FF6,45
13E2:  MOVFF  FF7,46
13E6:  MOVFF  FF5,50
13EA:  RCALL  1320
13EC:  MOVFF  45,FF6
13F0:  MOVFF  46,FF7
13F4:  DECFSZ 44,F
13F6:  BRA    13DC
13F8:  RETURN 0
13FA:  MOVF   47,W
13FC:  CLRF   01
13FE:  SUBWF  46,W
1400:  BC    1408
1402:  MOVFF  46,00
1406:  BRA    1420
1408:  CLRF   00
140A:  MOVLW  08
140C:  MOVWF  48
140E:  RLCF   46,F
1410:  RLCF   00,F
1412:  MOVF   47,W
1414:  SUBWF  00,W
1416:  BTFSC  FD8.0
1418:  MOVWF  00
141A:  RLCF   01,F
141C:  DECFSZ 48,F
141E:  BRA    140E
1420:  RETURN 0
1422:  MOVLW  20
1424:  BTFSS  41.4
1426:  MOVLW  30
1428:  MOVWF  42
142A:  MOVFF  40,00
142E:  BTFSS  40.7
1430:  BRA    1442
1432:  COMF   00,F
1434:  INCF   00,F
1436:  MOVFF  00,40
143A:  MOVLW  2D
143C:  MOVWF  42
143E:  BSF    41.7
1440:  BSF    41.0
1442:  MOVF   01,W
1444:  MOVFF  40,46
1448:  MOVLW  64
144A:  MOVWF  47
144C:  RCALL  13FA
144E:  MOVFF  00,40
1452:  MOVLW  30
1454:  ADDWF  01,W
1456:  MOVWF  43
1458:  MOVFF  40,46
145C:  MOVLW  0A
145E:  MOVWF  47
1460:  RCALL  13FA
1462:  MOVLW  30
1464:  ADDWF  00,W
1466:  MOVWF  45
1468:  MOVLW  30
146A:  ADDWF  01,W
146C:  MOVWF  44
146E:  MOVFF  42,00
1472:  MOVLW  30
1474:  SUBWF  43,W
1476:  BZ    1480
1478:  BSF    41.1
147A:  BTFSC  41.7
147C:  BSF    41.2
147E:  BRA    14A4
1480:  MOVFF  42,43
1484:  MOVLW  20
1486:  MOVWF  42
1488:  MOVLW  30
148A:  SUBWF  44,W
148C:  BZ    1496
148E:  BSF    41.0
1490:  BTFSC  41.7
1492:  BSF    41.1
1494:  BRA    14A4
1496:  BTFSS  FD8.2
1498:  BSF    41.0
149A:  BNZ   14A4
149C:  MOVFF  43,44
14A0:  MOVLW  20
14A2:  MOVWF  43
14A4:  BTFSC  41.2
14A6:  BRA    14B2
14A8:  BTFSC  41.1
14AA:  BRA    14B8
14AC:  BTFSC  41.0
14AE:  BRA    14BE
14B0:  BRA    14C4
14B2:  MOVFF  42,50
14B6:  RCALL  1320
14B8:  MOVFF  43,50
14BC:  RCALL  1320
14BE:  MOVFF  44,50
14C2:  RCALL  1320
14C4:  MOVFF  45,50
14C8:  RCALL  1320
14CA:  RETURN 0
*
15B4:  MOVLW  8E
15B6:  MOVWF  00
15B8:  MOVFF  41,01
15BC:  MOVFF  40,02
15C0:  CLRF   03
15C2:  MOVF   01,F
15C4:  BNZ   15D8
15C6:  MOVFF  02,01
15CA:  CLRF   02
15CC:  MOVLW  08
15CE:  SUBWF  00,F
15D0:  MOVF   01,F
15D2:  BNZ   15D8
15D4:  CLRF   00
15D6:  BRA    15E8
15D8:  BCF    FD8.0
15DA:  BTFSC  01.7
15DC:  BRA    15E6
15DE:  RLCF   02,F
15E0:  RLCF   01,F
15E2:  DECF   00,F
15E4:  BRA    15D8
15E6:  BCF    01.7
15E8:  GOTO   377E (RETURN)
15EC:  MOVF   4D,W
15EE:  BTFSC  FD8.2
15F0:  BRA    16D4
15F2:  MOVWF  00
15F4:  MOVF   51,W
15F6:  BTFSC  FD8.2
15F8:  BRA    16D4
15FA:  ADDWF  00,F
15FC:  BNC   1606
15FE:  MOVLW  81
1600:  ADDWF  00,F
1602:  BC    16D4
1604:  BRA    160E
1606:  MOVLW  7F
1608:  SUBWF  00,F
160A:  BNC   16D4
160C:  BZ    16D4
160E:  MOVFF  4E,55
1612:  MOVF   52,W
1614:  XORWF  55,F
1616:  BSF    4E.7
1618:  BSF    52.7
161A:  MOVF   50,W
161C:  MULWF  54
161E:  MOVFF  FF4,57
1622:  MOVF   4F,W
1624:  MULWF  53
1626:  MOVFF  FF4,03
162A:  MOVFF  FF3,56
162E:  MULWF  54
1630:  MOVF   FF3,W
1632:  ADDWF  57,F
1634:  MOVF   FF4,W
1636:  ADDWFC 56,F
1638:  MOVLW  00
163A:  ADDWFC 03,F
163C:  MOVF   50,W
163E:  MULWF  53
1640:  MOVF   FF3,W
1642:  ADDWF  57,F
1644:  MOVF   FF4,W
1646:  ADDWFC 56,F
1648:  MOVLW  00
164A:  CLRF   02
164C:  ADDWFC 03,F
164E:  ADDWFC 02,F
1650:  MOVF   4E,W
1652:  MULWF  54
1654:  MOVF   FF3,W
1656:  ADDWF  56,F
1658:  MOVF   FF4,W
165A:  ADDWFC 03,F
165C:  MOVLW  00
165E:  ADDWFC 02,F
1660:  MOVF   4E,W
1662:  MULWF  53
1664:  MOVF   FF3,W
1666:  ADDWF  03,F
1668:  MOVF   FF4,W
166A:  ADDWFC 02,F
166C:  MOVLW  00
166E:  CLRF   01
1670:  ADDWFC 01,F
1672:  MOVF   50,W
1674:  MULWF  52
1676:  MOVF   FF3,W
1678:  ADDWF  56,F
167A:  MOVF   FF4,W
167C:  ADDWFC 03,F
167E:  MOVLW  00
1680:  ADDWFC 02,F
1682:  ADDWFC 01,F
1684:  MOVF   4F,W
1686:  MULWF  52
1688:  MOVF   FF3,W
168A:  ADDWF  03,F
168C:  MOVF   FF4,W
168E:  ADDWFC 02,F
1690:  MOVLW  00
1692:  ADDWFC 01,F
1694:  MOVF   4E,W
1696:  MULWF  52
1698:  MOVF   FF3,W
169A:  ADDWF  02,F
169C:  MOVF   FF4,W
169E:  ADDWFC 01,F
16A0:  INCF   00,F
16A2:  BTFSC  01.7
16A4:  BRA    16B0
16A6:  RLCF   56,F
16A8:  RLCF   03,F
16AA:  RLCF   02,F
16AC:  RLCF   01,F
16AE:  DECF   00,F
16B0:  MOVLW  00
16B2:  BTFSS  56.7
16B4:  BRA    16CA
16B6:  INCF   03,F
16B8:  ADDWFC 02,F
16BA:  ADDWFC 01,F
16BC:  MOVF   01,W
16BE:  BNZ   16CA
16C0:  MOVF   02,W
16C2:  BNZ   16CA
16C4:  MOVF   03,W
16C6:  BNZ   16CA
16C8:  INCF   00,F
16CA:  BTFSC  55.7
16CC:  BSF    01.7
16CE:  BTFSS  55.7
16D0:  BCF    01.7
16D2:  BRA    16DC
16D4:  CLRF   00
16D6:  CLRF   01
16D8:  CLRF   02
16DA:  CLRF   03
16DC:  RETURN 0
16DE:  MOVF   4D,W
16E0:  SUBLW  B6
16E2:  MOVWF  4D
16E4:  CLRF   03
16E6:  MOVFF  4E,51
16EA:  BSF    4E.7
16EC:  BCF    FD8.0
16EE:  RRCF   4E,F
16F0:  RRCF   4F,F
16F2:  RRCF   50,F
16F4:  RRCF   03,F
16F6:  RRCF   02,F
16F8:  RRCF   01,F
16FA:  RRCF   00,F
16FC:  DECFSZ 4D,F
16FE:  BRA    16EC
1700:  BTFSS  51.7
1702:  BRA    171A
1704:  COMF   00,F
1706:  COMF   01,F
1708:  COMF   02,F
170A:  COMF   03,F
170C:  INCF   00,F
170E:  BTFSC  FD8.2
1710:  INCF   01,F
1712:  BTFSC  FD8.2
1714:  INCF   02,F
1716:  BTFSC  FD8.2
1718:  INCF   03,F
171A:  GOTO   17FA (RETURN)
171E:  BTFSC  FD8.1
1720:  BRA    1728
1722:  CLRF   FEA
1724:  MOVLW  58
1726:  MOVWF  FE9
1728:  CLRF   00
172A:  CLRF   01
172C:  CLRF   02
172E:  CLRF   03
1730:  CLRF   58
1732:  CLRF   59
1734:  CLRF   5A
1736:  CLRF   5B
1738:  MOVF   57,W
173A:  IORWF  56,W
173C:  IORWF  55,W
173E:  IORWF  54,W
1740:  BZ    179A
1742:  MOVLW  20
1744:  MOVWF  5C
1746:  BCF    FD8.0
1748:  RLCF   50,F
174A:  RLCF   51,F
174C:  RLCF   52,F
174E:  RLCF   53,F
1750:  RLCF   58,F
1752:  RLCF   59,F
1754:  RLCF   5A,F
1756:  RLCF   5B,F
1758:  MOVF   57,W
175A:  SUBWF  5B,W
175C:  BNZ   176E
175E:  MOVF   56,W
1760:  SUBWF  5A,W
1762:  BNZ   176E
1764:  MOVF   55,W
1766:  SUBWF  59,W
1768:  BNZ   176E
176A:  MOVF   54,W
176C:  SUBWF  58,W
176E:  BNC   178E
1770:  MOVF   54,W
1772:  SUBWF  58,F
1774:  MOVF   55,W
1776:  BTFSS  FD8.0
1778:  INCFSZ 55,W
177A:  SUBWF  59,F
177C:  MOVF   56,W
177E:  BTFSS  FD8.0
1780:  INCFSZ 56,W
1782:  SUBWF  5A,F
1784:  MOVF   57,W
1786:  BTFSS  FD8.0
1788:  INCFSZ 57,W
178A:  SUBWF  5B,F
178C:  BSF    FD8.0
178E:  RLCF   00,F
1790:  RLCF   01,F
1792:  RLCF   02,F
1794:  RLCF   03,F
1796:  DECFSZ 5C,F
1798:  BRA    1746
179A:  MOVFF  58,FEF
179E:  MOVFF  59,FEC
17A2:  MOVFF  5A,FEC
17A6:  MOVFF  5B,FEC
17AA:  RETURN 0
17AC:  MOVF   FE9,W
17AE:  MOVWF  45
17B0:  MOVF   44,W
17B2:  MOVWF  47
17B4:  BZ    17E8
17B6:  MOVFF  43,50
17BA:  MOVFF  42,4F
17BE:  MOVFF  41,4E
17C2:  MOVFF  40,4D
17C6:  CLRF   54
17C8:  CLRF   53
17CA:  MOVLW  20
17CC:  MOVWF  52
17CE:  MOVLW  82
17D0:  MOVWF  51
17D2:  RCALL  15EC
17D4:  MOVFF  03,43
17D8:  MOVFF  02,42
17DC:  MOVFF  01,41
17E0:  MOVFF  00,40
17E4:  DECFSZ 47,F
17E6:  BRA    17B6
17E8:  MOVFF  43,50
17EC:  MOVFF  42,4F
17F0:  MOVFF  41,4E
17F4:  MOVFF  40,4D
17F8:  BRA    16DE
17FA:  MOVFF  03,43
17FE:  MOVFF  02,42
1802:  MOVFF  01,41
1806:  MOVFF  00,40
180A:  BTFSS  43.7
180C:  BRA    1828
180E:  DECF   45,F
1810:  BSF    45.5
1812:  COMF   40,F
1814:  COMF   41,F
1816:  COMF   42,F
1818:  COMF   43,F
181A:  INCF   40,F
181C:  BTFSC  FD8.2
181E:  INCF   41,F
1820:  BTFSC  FD8.2
1822:  INCF   42,F
1824:  BTFSC  FD8.2
1826:  INCF   43,F
1828:  MOVLW  3B
182A:  MOVWF  4C
182C:  MOVLW  9A
182E:  MOVWF  4B
1830:  MOVLW  CA
1832:  MOVWF  4A
1834:  CLRF   49
1836:  MOVLW  0A
1838:  MOVWF  47
183A:  MOVF   44,W
183C:  BTFSC  FD8.2
183E:  INCF   45,F
1840:  BSF    FD8.1
1842:  CLRF   FEA
1844:  MOVLW  40
1846:  MOVWF  FE9
1848:  MOVFF  43,53
184C:  MOVFF  42,52
1850:  MOVFF  41,51
1854:  MOVFF  40,50
1858:  MOVFF  4C,57
185C:  MOVFF  4B,56
1860:  MOVFF  4A,55
1864:  MOVFF  49,54
1868:  RCALL  171E
186A:  MOVF   01,W
186C:  MOVF   00,F
186E:  BNZ   188E
1870:  INCF   44,W
1872:  SUBWF  47,W
1874:  BZ    188E
1876:  MOVF   45,W
1878:  BZ    1892
187A:  ANDLW  0F
187C:  SUBWF  47,W
187E:  BZ    1882
1880:  BC    18F0
1882:  BTFSC  45.7
1884:  BRA    18F0
1886:  BTFSC  45.6
1888:  BRA    1892
188A:  MOVLW  20
188C:  BRA    18E8
188E:  MOVLW  20
1890:  ANDWF  45,F
1892:  BTFSS  45.5
1894:  BRA    18AE
1896:  BCF    45.5
1898:  MOVF   44,W
189A:  BTFSS  FD8.2
189C:  DECF   45,F
189E:  MOVF   00,W
18A0:  MOVWF  45
18A2:  MOVLW  2D
18A4:  MOVWF  50
18A6:  RCALL  1320
18A8:  MOVF   45,W
18AA:  MOVWF  00
18AC:  CLRF   45
18AE:  MOVF   44,W
18B0:  SUBWF  47,W
18B2:  BNZ   18C8
18B4:  MOVF   00,W
18B6:  MOVWF  45
18B8:  MOVLW  2E
18BA:  MOVWF  50
18BC:  RCALL  1320
18BE:  MOVF   45,W
18C0:  MOVWF  00
18C2:  MOVLW  20
18C4:  ANDWF  45,F
18C6:  MOVLW  00
18C8:  MOVLW  30
18CA:  BTFSS  45.5
18CC:  BRA    18E8
18CE:  BCF    45.5
18D0:  MOVF   44,W
18D2:  BTFSS  FD8.2
18D4:  DECF   45,F
18D6:  MOVF   00,W
18D8:  MOVWF  45
18DA:  MOVLW  2D
18DC:  MOVWF  50
18DE:  RCALL  1320
18E0:  MOVF   45,W
18E2:  MOVWF  00
18E4:  CLRF   45
18E6:  MOVLW  30
18E8:  ADDWF  00,F
18EA:  MOVFF  00,50
18EE:  RCALL  1320
18F0:  BCF    FD8.1
18F2:  MOVFF  4C,53
18F6:  MOVFF  4B,52
18FA:  MOVFF  4A,51
18FE:  MOVFF  49,50
1902:  CLRF   57
1904:  CLRF   56
1906:  CLRF   55
1908:  MOVLW  0A
190A:  MOVWF  54
190C:  RCALL  171E
190E:  MOVFF  03,4C
1912:  MOVFF  02,4B
1916:  MOVFF  01,4A
191A:  MOVFF  00,49
191E:  DECFSZ 47,F
1920:  BRA    1840
1922:  GOTO   3826 (RETURN)
1926:  MOVF   FE9,W
1928:  MOVWF  48
192A:  MOVLW  3B
192C:  MOVWF  4F
192E:  MOVLW  9A
1930:  MOVWF  4E
1932:  MOVLW  CA
1934:  MOVWF  4D
1936:  CLRF   4C
1938:  MOVLW  0A
193A:  MOVWF  4A
193C:  BSF    FD8.1
193E:  CLRF   FEA
1940:  MOVLW  44
1942:  MOVWF  FE9
1944:  MOVFF  47,53
1948:  MOVFF  46,52
194C:  MOVFF  45,51
1950:  MOVFF  44,50
1954:  MOVFF  4F,57
1958:  MOVFF  4E,56
195C:  MOVFF  4D,55
1960:  MOVFF  4C,54
1964:  RCALL  171E
1966:  MOVF   01,W
1968:  MOVF   00,F
196A:  BNZ   198A
196C:  MOVF   4A,W
196E:  XORLW  01
1970:  BZ    198A
1972:  MOVF   48,W
1974:  BZ    198C
1976:  ANDLW  0F
1978:  SUBWF  4A,W
197A:  BZ    197E
197C:  BC    1996
197E:  BTFSC  48.7
1980:  BRA    1996
1982:  BTFSC  48.6
1984:  BRA    198C
1986:  MOVLW  20
1988:  BRA    198E
198A:  CLRF   48
198C:  MOVLW  30
198E:  ADDWF  00,F
1990:  MOVFF  00,50
1994:  RCALL  1320
1996:  BCF    FD8.1
1998:  MOVFF  4F,53
199C:  MOVFF  4E,52
19A0:  MOVFF  4D,51
19A4:  MOVFF  4C,50
19A8:  CLRF   57
19AA:  CLRF   56
19AC:  CLRF   55
19AE:  MOVLW  0A
19B0:  MOVWF  54
19B2:  RCALL  171E
19B4:  MOVFF  03,4F
19B8:  MOVFF  02,4E
19BC:  MOVFF  01,4D
19C0:  MOVFF  00,4C
19C4:  DECFSZ 4A,F
19C6:  BRA    193C
19C8:  GOTO   39D2 (RETURN)
.................... 
.................... #list
.................... 
.................... #device ADC = 10
.................... #use i2c(Master,Fast=100000, sda=PIN_C4, scl=PIN_C3,force_sw)
*
10C4:  MOVLW  08
10C6:  MOVWF  01
10C8:  NOP   
10CA:  BCF    F8B.3
10CC:  BCF    F94.3
10CE:  NOP   
10D0:  RLCF   5E,F
10D2:  BCF    F8B.4
10D4:  BTFSC  FD8.0
10D6:  BSF    F94.4
10D8:  BTFSS  FD8.0
10DA:  BCF    F94.4
10DC:  BSF    F94.3
10DE:  BTFSS  F82.3
10E0:  BRA    10DE
10E2:  DECFSZ 01,F
10E4:  BRA    10C8
10E6:  NOP   
10E8:  BCF    F8B.3
10EA:  BCF    F94.3
10EC:  NOP   
10EE:  BSF    F94.4
10F0:  NOP   
10F2:  NOP   
10F4:  BSF    F94.3
10F6:  BTFSS  F82.3
10F8:  BRA    10F6
10FA:  CLRF   01
10FC:  NOP   
10FE:  BTFSC  F82.4
1100:  BSF    01.0
1102:  BCF    F8B.3
1104:  BCF    F94.3
1106:  BCF    F8B.4
1108:  BCF    F94.4
110A:  RETURN 0
.................... #include <i2c_Flex_LCD.c>
.................... //----------------------------------------------------------------------------- 
.................... // Title:         i2c_Flex_LCD 
.................... // Description:   Driver for common LCD with 1/2/3 or 4 rows by 1...20 columns 
.................... //                using PCF8574T interface board with I2C protocol. 
.................... // Date:          Nov-2013 
.................... // Ver.Rev.:      1.1 
.................... // Author:        Hugo Silva (sergio-hugo@bol.com.br) #Based on the routines of 
.................... //                "20X4_LCD_I2C_DRIVER.h" from Pumrin S. and "lcd4_i2c.c" from XP8100 
.................... //----------------------------------------------------------------------------- 
.................... // 
.................... // lcd_init() Must be called before any other function. 
.................... // 
.................... // lcd_putc(c) Will display c on the next position of the LCD. 
.................... //  
.................... //     \f Clear LCD display 
.................... //     \n Set write position on next lcd line 
.................... //     \b LCD backspace 
.................... //     lcd_gotoxy(x,y) Set write position on LCD (upper left is 1,1) 
.................... // 
.................... // lcd_backlight_led(ON)/lcd_backlight_led(OFF) = Turn ON/OFF LCD Backlight LED 
.................... // 
.................... //----------------------------------------------------------------------------- 
.................... // LCD pins D0-D3 are not used. 
.................... //----------------------------------------------------------------------------- 
.................... // 
.................... // Comment   : Control of a compatible LCD (1...4 rows by 1...4 columns) from 
.................... //              a bus I2C with an EXPANDER of I/O with connection I2C. 
.................... //              The tests of these routines have been programmed using the IC 
.................... //              Phillips PCF8574T. I've used 4 bits mode programming. 
.................... //              The 8 bits mode programming is possible if you use 2 x PCF8574T. 
.................... //              RW Pin is not being used. 
.................... // 
.................... // As defined in the following structure the pin connection is as follows: 
.................... // 
.................... //  PCF8574P     LCD 
.................... //  ========     ====== 
.................... //     P0        RS 
.................... //     P1        RW    (Not used!) 
.................... //     P2        Enable  
.................... //     P3        Led Backlight 
.................... //     P4        D4 
.................... //     P5        D5 
.................... //     P6        D6 
.................... //     P7        D7 
.................... // 
.................... //  The SCL and SDA pins should be pull-up resistor as shown below: 
.................... // 
.................... //             +5v 
.................... //               | 
.................... //               < 
.................... //               > 4.7K        
.................... //               <          
.................... //To PIC         |          To i2c slave 
.................... //pin xx ------------------ SDA pin  
.................... //(SDA)                      
.................... //              +5v 
.................... //               | 
.................... //               < 
.................... //               > 4.7K        
.................... //               <          
.................... //To PIC         |          To i2c slave 
.................... //pin xx ------------------ SCL pin  
.................... //(SCL) 
.................... // 
.................... //To PIC                    To i2c slave 
.................... //Vss pin ----------------- Vss or ground pin  
.................... //                | 
.................... //              ----- 
.................... //               ---  Ground 
.................... //                -  
.................... //  
.................... // THIS DOCUMENT IS PROVIDED TO THE USER "AS IS" 
.................... //----------------------------------------------------------------------------- 
.................... byte LCD_ADDR ;//             0x4E        //I2C slave address for LCD module 
.................... byte lcd_total_rows ;//       2           //Number of rows: 1,2,3 or 4 
.................... byte lcd_total_columns ;//    16          //Number of columns: 1...20   
.................... 
.................... #define RS                    0b00000001  //P0 - PCF8574T Pin connected to RS 
.................... #define RW                    0b00000010  //P1 - PCF8574T Pin connected to RW 
.................... #define ENABLE                0b00000100  //P2 - PCF8574T Pin connected to EN 
.................... #define LCD_BACKLIGHT         0b00001000  //P3 - PCF8574T Pin connected to BACKLIGHT LED 
.................... 
.................... #define addr_row_one          0x00        //LCD RAM address for row 1 
.................... #define addr_row_two          0x40        //LCD RAM address for row 2 
.................... #define addr_row_three        0x14        //LCD RAM address for row 3 
.................... #define addr_row_four         0x54        //LCD RAM address for row 4 
.................... 
.................... #define ON                    1 
.................... #define OFF                   0 
.................... #define NOT                   ~ 
.................... #define data_shifted          data<<4 
.................... 
.................... #use delay(clock=4Mhz)
*
109C:  CLRF   FEA
109E:  MOVLW  51
10A0:  MOVWF  FE9
10A2:  MOVF   FEF,W
10A4:  BZ    10C2
10A6:  MOVLW  01
10A8:  MOVWF  01
10AA:  CLRF   00
10AC:  DECFSZ 00,F
10AE:  BRA    10AC
10B0:  DECFSZ 01,F
10B2:  BRA    10AA
10B4:  MOVLW  4A
10B6:  MOVWF  00
10B8:  DECFSZ 00,F
10BA:  BRA    10B8
10BC:  BRA    10BE
10BE:  DECFSZ FEF,F
10C0:  BRA    10A6
10C2:  RETURN 0
.................... int8 new_row_request=1, BACKLIGHT_LED=LCD_BACKLIGHT; 
.................... 
.................... void lcd_backlight_led(byte bl) 
.................... {  
....................       If (bl) BACKLIGHT_LED=LCD_BACKLIGHT; else BACKLIGHT_LED=OFF; 
.................... } 
.................... 
.................... void i2c_send_nibble(byte data, byte type) 
.................... {    
....................    switch (type) 
*
110C:  MOVF   5C,W
110E:  XORLW  00
1110:  BZ    1118
1112:  XORLW  01
1114:  BZ    1158
1116:  BRA    119A
....................    {      
....................       case 0 :      
....................       i2c_write(data_shifted | BACKLIGHT_LED); 
1118:  SWAPF  5B,W
111A:  MOVWF  00
111C:  MOVLW  F0
111E:  ANDWF  00,F
1120:  MOVF   00,W
1122:  IORWF  1D,W
1124:  MOVWF  5D
1126:  MOVWF  5E
1128:  RCALL  10C4
....................       delay_cycles(1); 
112A:  NOP   
....................       i2c_write(data_shifted | ENABLE | BACKLIGHT_LED ); 
112C:  SWAPF  5B,W
112E:  MOVWF  00
1130:  MOVLW  F0
1132:  ANDWF  00,F
1134:  MOVF   00,W
1136:  IORLW  04
1138:  IORWF  1D,W
113A:  MOVWF  5D
113C:  MOVWF  5E
113E:  RCALL  10C4
....................       delay_us(2); 
1140:  BRA    1142
....................       i2c_write(data_shifted & NOT ENABLE | BACKLIGHT_LED); 
1142:  SWAPF  5B,W
1144:  MOVWF  00
1146:  MOVLW  F0
1148:  ANDWF  00,F
114A:  MOVF   00,W
114C:  ANDLW  FB
114E:  IORWF  1D,W
1150:  MOVWF  5D
1152:  MOVWF  5E
1154:  RCALL  10C4
....................       break; 
1156:  BRA    119A
....................       
....................       case 1 : 
....................       i2c_write(data_shifted | RS | BACKLIGHT_LED); 
1158:  SWAPF  5B,W
115A:  MOVWF  00
115C:  MOVLW  F0
115E:  ANDWF  00,F
1160:  MOVF   00,W
1162:  IORLW  01
1164:  IORWF  1D,W
1166:  MOVWF  5D
1168:  MOVWF  5E
116A:  RCALL  10C4
....................       delay_cycles(1); 
116C:  NOP   
....................       i2c_write(data_shifted | RS | ENABLE | BACKLIGHT_LED ); 
116E:  SWAPF  5B,W
1170:  MOVWF  00
1172:  MOVLW  F0
1174:  ANDWF  00,F
1176:  MOVF   00,W
1178:  IORLW  01
117A:  IORLW  04
117C:  IORWF  1D,W
117E:  MOVWF  5D
1180:  MOVWF  5E
1182:  RCALL  10C4
....................       delay_us(2); 
1184:  BRA    1186
....................       i2c_write(data_shifted | RS | BACKLIGHT_LED); 
1186:  SWAPF  5B,W
1188:  MOVWF  00
118A:  MOVLW  F0
118C:  ANDWF  00,F
118E:  MOVF   00,W
1190:  IORLW  01
1192:  IORWF  1D,W
1194:  MOVWF  5D
1196:  MOVWF  5E
1198:  RCALL  10C4
....................       break; 
....................    } 
119A:  RETURN 0
.................... } 
....................     
.................... void lcd_send_byte(byte data, byte type) 
....................    { 
....................         i2c_start(); 
119C:  BSF    F94.4
119E:  NOP   
11A0:  BSF    F94.3
11A2:  NOP   
11A4:  BCF    F8B.4
11A6:  BCF    F94.4
11A8:  NOP   
11AA:  BCF    F8B.3
11AC:  BCF    F94.3
....................         i2c_write(LCD_ADDR); 
11AE:  MOVFF  19,5E
11B2:  RCALL  10C4
....................         i2c_send_nibble(data >> 4 , type); 
11B4:  SWAPF  58,W
11B6:  MOVWF  5A
11B8:  MOVLW  0F
11BA:  ANDWF  5A,F
11BC:  MOVFF  5A,5B
11C0:  MOVFF  59,5C
11C4:  RCALL  110C
....................         i2c_send_nibble(data & 0xf , type); 
11C6:  MOVF   58,W
11C8:  ANDLW  0F
11CA:  MOVWF  5A
11CC:  MOVWF  5B
11CE:  MOVFF  59,5C
11D2:  RCALL  110C
....................         i2c_stop();        
11D4:  BCF    F94.4
11D6:  NOP   
11D8:  BSF    F94.3
11DA:  BTFSS  F82.3
11DC:  BRA    11DA
11DE:  NOP   
11E0:  BRA    11E2
11E2:  NOP   
11E4:  BSF    F94.4
11E6:  NOP   
11E8:  RETURN 0
....................    } 
.................... 
.................... void lcd_clear() 
.................... {  
....................         lcd_send_byte(0x01,0); 
11EA:  MOVLW  01
11EC:  MOVWF  58
11EE:  CLRF   59
11F0:  RCALL  119C
....................         delay_ms(2); 
11F2:  MOVLW  02
11F4:  MOVWF  51
11F6:  RCALL  109C
....................         new_row_request=1; 
11F8:  MOVLW  01
11FA:  MOVWF  1C
11FC:  RETURN 0
.................... } 
.................... 
.................... void lcd_init(byte ADDR, byte col, byte row) 
.................... { 
....................    byte i;
....................    byte CONST lcd_type=2;  // 0=5x7, 1=5x10, 2=2 lines 
....................    byte CONST LCD_INIT_STRING[4] = {0x20 | (lcd_type << 2), 0xc, 1, 6}; // These bytes need to be sent to the LCD to start it up.
....................    
....................    LCD_ADDR =ADDR;//             0x4E        //I2C slave address for LCD module 
11FE:  MOVFF  40,19
....................    lcd_total_rows =row;//       2           //Number of rows: 1,2,3 or 4 
1202:  MOVFF  42,1A
....................    lcd_total_columns= col ;
1206:  MOVFF  41,1B
....................    disable_interrupts(GLOBAL); 
120A:  BCF    FF2.6
120C:  BCF    FF2.7
120E:  BTFSC  FF2.7
1210:  BRA    120C
....................    delay_ms(50); //LCD power up delay 
1212:  MOVLW  32
1214:  MOVWF  51
1216:  RCALL  109C
....................     
....................    i2c_start(); 
1218:  BSF    F94.4
121A:  NOP   
121C:  BSF    F94.3
121E:  NOP   
1220:  BCF    F8B.4
1222:  BCF    F94.4
1224:  NOP   
1226:  BCF    F8B.3
1228:  BCF    F94.3
....................    i2c_write(LCD_ADDR); 
122A:  MOVFF  19,5E
122E:  RCALL  10C4
....................       i2c_send_nibble(0x00,0); 
1230:  CLRF   5B
1232:  CLRF   5C
1234:  RCALL  110C
....................       delay_ms(15); 
1236:  MOVLW  0F
1238:  MOVWF  51
123A:  RCALL  109C
....................     
....................    for (i=1;i<=3;++i)    
123C:  MOVLW  01
123E:  MOVWF  43
1240:  MOVF   43,W
1242:  SUBLW  03
1244:  BNC   1258
....................    { 
....................       i2c_send_nibble(0x03,0); 
1246:  MOVLW  03
1248:  MOVWF  5B
124A:  CLRF   5C
124C:  RCALL  110C
....................       delay_ms(5); 
124E:  MOVLW  05
1250:  MOVWF  51
1252:  RCALL  109C
1254:  INCF   43,F
1256:  BRA    1240
....................    }    
....................       i2c_send_nibble(0x02,0); 
1258:  MOVLW  02
125A:  MOVWF  5B
125C:  CLRF   5C
125E:  RCALL  110C
....................       delay_ms(5); 
1260:  MOVLW  05
1262:  MOVWF  51
1264:  RCALL  109C
....................    i2c_stop(); 
1266:  BCF    F94.4
1268:  NOP   
126A:  BSF    F94.3
126C:  BTFSS  F82.3
126E:  BRA    126C
1270:  NOP   
1272:  BRA    1274
1274:  NOP   
1276:  BSF    F94.4
1278:  NOP   
....................     
....................    for (i=0;i<=3;++i) { 
127A:  CLRF   43
127C:  MOVF   43,W
127E:  SUBLW  03
1280:  BNC   129C
....................    lcd_send_byte(LCD_INIT_STRING[i],0); 
1282:  CLRF   03
1284:  MOVF   43,W
1286:  CALL   00BA
128A:  MOVWF  44
128C:  MOVWF  58
128E:  CLRF   59
1290:  RCALL  119C
....................    delay_ms(5); 
1292:  MOVLW  05
1294:  MOVWF  51
1296:  RCALL  109C
1298:  INCF   43,F
129A:  BRA    127C
....................    } 
....................    lcd_clear();  //Clear Display 
129C:  RCALL  11EA
....................    enable_interrupts(GLOBAL); 
129E:  MOVLW  C0
12A0:  IORWF  FF2,F
12A2:  GOTO   1AA8 (RETURN)
.................... } 
.................... 
.................... void lcd_gotoxy( byte x, byte y) 
.................... { 
.................... byte row,column,row_addr,lcd_address; 
.................... static char data; 
.................... 
....................    if (y>lcd_total_rows) row=lcd_total_rows; else row=y; 
*
12BE:  MOVF   52,W
12C0:  SUBWF  1A,W
12C2:  BC    12CA
12C4:  MOVFF  1A,53
12C8:  BRA    12CE
12CA:  MOVFF  52,53
....................   
....................    switch(row) 
12CE:  MOVF   53,W
12D0:  XORLW  01
12D2:  BZ    12E2
12D4:  XORLW  03
12D6:  BZ    12E6
12D8:  XORLW  01
12DA:  BZ    12EC
12DC:  XORLW  07
12DE:  BZ    12F2
12E0:  BRA    12F8
....................    { 
....................       case 1:  row_addr=addr_row_one;     break; 
12E2:  CLRF   55
12E4:  BRA    12FA
....................       case 2:  row_addr=addr_row_two;     break; 
12E6:  MOVLW  40
12E8:  MOVWF  55
12EA:  BRA    12FA
....................       case 3:  row_addr=addr_row_three;   break; 
12EC:  MOVLW  14
12EE:  MOVWF  55
12F0:  BRA    12FA
....................       case 4:  row_addr=addr_row_four;    break; 
12F2:  MOVLW  54
12F4:  MOVWF  55
12F6:  BRA    12FA
....................       default: row_addr=addr_row_one;     break;  
12F8:  CLRF   55
....................    }  
....................     
....................    if (x>lcd_total_columns) column=lcd_total_columns; else column=x;  
12FA:  MOVF   51,W
12FC:  SUBWF  1B,W
12FE:  BC    1306
1300:  MOVFF  1B,54
1304:  BRA    130A
1306:  MOVFF  51,54
....................    lcd_address=(row_addr+(column-1)); 
130A:  MOVLW  01
130C:  SUBWF  54,W
130E:  ADDWF  55,W
1310:  MOVWF  56
....................    lcd_send_byte(0x80|lcd_address,0); 
1312:  MOVF   56,W
1314:  IORLW  80
1316:  MOVWF  57
1318:  MOVWF  58
131A:  CLRF   59
131C:  RCALL  119C
131E:  RETURN 0
.................... } 
.................... 
.................... //Display the character on LCD screen. 
.................... void LCD_PUTC(char in_data) 
.................... {    
....................   switch(in_data) 
1320:  MOVF   50,W
1322:  XORLW  0C
1324:  BZ    1330
1326:  XORLW  06
1328:  BZ    1334
132A:  XORLW  02
132C:  BZ    134C
132E:  BRA    1356
....................    {  
....................      case '\f': lcd_clear();                       break;                
1330:  RCALL  11EA
1332:  BRA    1360
....................       
....................      case '\n': 
....................      new_row_request++; 
1334:  INCF   1C,F
....................      if (new_row_request>lcd_total_rows) new_row_request=1; 
1336:  MOVF   1C,W
1338:  SUBWF  1A,W
133A:  BC    1340
133C:  MOVLW  01
133E:  MOVWF  1C
....................      lcd_gotoxy(1, new_row_request); 
1340:  MOVLW  01
1342:  MOVWF  51
1344:  MOVFF  1C,52
1348:  RCALL  12BE
....................      break; 
134A:  BRA    1360
....................                   
....................      case '\b': lcd_send_byte(0x10,0);             break; 
134C:  MOVLW  10
134E:  MOVWF  58
1350:  CLRF   59
1352:  RCALL  119C
1354:  BRA    1360
....................         
....................      default: lcd_send_byte(in_data,1);            break;      
1356:  MOVFF  50,58
135A:  MOVLW  01
135C:  MOVWF  59
135E:  RCALL  119C
....................       
....................    } 
1360:  RETURN 0
.................... } 
.................... 
.................... #fuses intrc,nowdt
.................... #use delay(clock=8000000)
*
1382:  CLRF   FEA
1384:  MOVLW  41
1386:  MOVWF  FE9
1388:  MOVF   FEF,W
138A:  BZ    13A6
138C:  MOVLW  02
138E:  MOVWF  01
1390:  CLRF   00
1392:  DECFSZ 00,F
1394:  BRA    1392
1396:  DECFSZ 01,F
1398:  BRA    1390
139A:  MOVLW  97
139C:  MOVWF  00
139E:  DECFSZ 00,F
13A0:  BRA    139E
13A2:  DECFSZ FEF,F
13A4:  BRA    138C
13A6:  RETURN 0
.................... //#include <lcd.c>
.................... #use fast_io(all)
.................... #priority rtcc, ext2  // Establecer prioridad si es necesario
.................... float Lecturaad620;
.................... int32 valor_recarga = 42098; 
.................... //int32 valor_recarga = 0;
.................... int direccionI2C = 0x4E;
.................... int filas = 2;
.................... int columnas = 16;
.................... int pulsos_555 =  0;
.................... int1 bandera_prueba_555;
.................... int1 bandera_estado_555;
.................... int32 value;
.................... int opambuenos = 0;
.................... int1 NPN_estado;
.................... int1 PNP_estado;
.................... int Compuerta = 0;
.................... /* suponiendo que genere problemas lo de setear de esta manera los pines del puerto C, se puede probar colocar en 11 C3 y C4 as o en su defecto se puede setear de manera individual:
.................... Definir como entradas los pines:
.................... set_tris_c(0b00011000); // RC3 y RC4 en entrada, los dems en salida
.................... set_tris_c((input_c() & 0b00011000) | 0b00000000);
.................... output_c(input_c() & 0b00011000);// colocar puerto c 0000 0000
.................... 
.................... bit_set(TRISC, 3);  // RC3 como entrada
.................... bit_set(TRISC, 4);  // RC4 como entrada
.................... 
.................... bit_clear(TRISC, 0); // RC0 como salida
.................... bit_clear(TRISC, 1); // RC1 como salida
.................... bit_clear(TRISC, 2); // RC2 como salida
.................... bit_clear(TRISC, 5); // RC5 como salida
.................... bit_clear(TRISC, 6); // RC6 como salida
.................... bit_clear(TRISC, 7); // RC7 como salida
.................... 
.................... para output es:
.................... bit_clear(PORTC, 0);  // RC0 en bajo
.................... bit_clear(PORTC, 1);  // RC1 en bajo
.................... bit_clear(PORTC, 2);  // RC2 en bajo
.................... bit_clear(PORTC, 5);  // RC5 en bajo
.................... bit_clear(PORTC, 6);  // RC6 en bajo
.................... bit_clear(PORTC, 7);  // RC7 en bajo
.................... */
.................... 
.................... 
.................... #INT_EXT2
.................... void pulsos() {
....................    pulsos_555 = pulsos_555 + 1;
*
00CE:  MOVLW  01
00D0:  ADDWF  2A,F
....................    CLEAR_INTERRUPT(INT_EXT2);
00D2:  BCF    FF0.1
.................... }
.................... 
00D4:  BCF    FF0.1
00D6:  GOTO   006C
.................... #INT_RTCC 
.................... void tiempo_final_555() {
....................    DISABLE_INTERRUPTS(INT_EXT2);// Inhabilitar las interrupciones del timer0
00DA:  BCF    FF0.4
....................    DISABLE_INTERRUPTS(INT_RTCC);
00DC:  BCF    FF2.5
....................    bandera_prueba_555 = 0;
00DE:  BCF    2B.0
....................    if (pulsos_555 > 9) {
00E0:  MOVF   2A,W
00E2:  SUBLW  09
00E4:  BC    00EA
....................       bandera_estado_555 = 1;
00E6:  BSF    2B.1
....................    }
00E8:  BRA    00EC
....................    
....................    else {
....................       bandera_estado_555 = 0;
00EA:  BCF    2B.1
....................    }
....................    set_timer0(valor_recarga);
00EC:  MOVFF  24,FD7
00F0:  MOVFF  23,FD6
00F4:  NOP   
....................    CLEAR_INTERRUPT(INT_RTCC);
00F6:  BCF    FF2.2
00F8:  BCF    FF2.2
00FA:  GOTO   006C
.................... }
.................... 
.................... 
.................... void limpiar_puertos()
.................... {
....................     output_b(0x00); // Limpiar puerto D (poner todos los pines en bajo)
*
12A6:  CLRF   F8A
....................     output_c(0x00); // Limpiar puerto C (poner todos los pines en bajo)
12A8:  CLRF   F8B
12AA:  RETURN 0
.................... }
.................... void configurar_puertos()
.................... {
....................     set_tris_b(0x00); // Configurar puerto D como salida
12AC:  MOVLW  00
12AE:  MOVWF  F93
....................     set_tris_c(0x3F); // Configurar puerto C como entrada C6 y C7 son salidas
12B0:  MOVLW  3F
12B2:  MOVWF  F94
12B4:  GOTO   12BC (RETURN)
....................     
.................... }
.................... void configurar_puertos2()
.................... {
....................     set_tris_b(0x51); // Configurar puerto D como salida 0101 0001
*
14CC:  MOVLW  51
14CE:  MOVWF  F93
....................     set_tris_c(0x40); // Configurar puerto C como salida 0100 0000
14D0:  MOVLW  40
14D2:  MOVWF  F94
....................     output_b(0x00); // Colocar puerto D 0000 0000
14D4:  CLRF   F8A
....................     output_c(0x00);
14D6:  CLRF   F8B
14D8:  GOTO   14E0 (RETURN)
.................... }
.................... void configurar_puertos3()
.................... {
....................     set_tris_b(0x6a); // Configurar puerto D como salida 0110 1010
*
14FA:  MOVLW  6A
14FC:  MOVWF  F93
....................     set_tris_c(0x46); // Configurar puerto C como salida 0100 0110
14FE:  MOVLW  46
1500:  MOVWF  F94
....................     output_b(0x00); // Colocar puerto D 10101010
1502:  CLRF   F8A
....................     output_c(0x00);// colocar puerto c 0110110
1504:  CLRF   F8B
1506:  GOTO   150E (RETURN)
.................... }
.................... void configurar_puertos4()
.................... {
....................     set_tris_b(0x6a); // Configurar puerto D como salida 0110 1010
*
1512:  MOVLW  6A
1514:  MOVWF  F93
....................     set_tris_c(0x46); // Configurar puerto C como salida 0100 0110
1516:  MOVLW  46
1518:  MOVWF  F94
....................     output_b(0x95); // Colocar puerto D 1001 0101
151A:  MOVLW  95
151C:  MOVWF  F8A
....................     output_c(0x82);// colocar puerto c 1000 0010
151E:  MOVLW  82
1520:  MOVWF  F8B
1522:  GOTO   152A (RETURN)
.................... }
.................... 
.................... void configurar_puertos5()
.................... {
....................     set_tris_b(0x28); // Configurar puerto D como salida 0010 1000 
*
152E:  MOVLW  28
1530:  MOVWF  F93
....................     set_tris_c(0x04); // Configurar puerto C como salida 0000 0100
1532:  MOVLW  04
1534:  MOVWF  F94
....................     output_b(0x00); // Colocar puerto D 1001 0101
1536:  CLRF   F8A
....................     output_c(0x00);// colocar puerto c 1000 0010
1538:  CLRF   F8B
153A:  GOTO   1542 (RETURN)
.................... }
.................... void configurar_puertos6()
.................... {
....................     set_tris_b(0x28); // Configurar puerto D como salida 0010 1000 
*
1546:  MOVLW  28
1548:  MOVWF  F93
....................     set_tris_c(0x04); // Configurar puerto C como salida 0000 0100
154A:  MOVLW  04
154C:  MOVWF  F94
....................     output_b(0xD7); // Colocar puerto D 1101 0111
154E:  MOVLW  D7
1550:  MOVWF  F8A
....................     output_c(0xFB);// colocar puerto c 1111 1011
1552:  MOVLW  FB
1554:  MOVWF  F8B
1556:  GOTO   155E (RETURN)
.................... }
.................... void configurar_puertos7()
.................... {
....................     set_tris_b(0x08); // Configurar puerto D como salida 0000 1000 
*
1562:  MOVLW  08
1564:  MOVWF  F93
....................     set_tris_c(0x04); // Configurar puerto C como salida 0000 0100
1566:  MOVLW  04
1568:  MOVWF  F94
....................     output_b(0x00); // Colocar puerto D 0000 0000
156A:  CLRF   F8A
....................     output_c(input_c() & 0b00011000);// colocar puerto c 0000 0000
156C:  MOVF   F82,W
156E:  ANDLW  18
1570:  MOVWF  F8B
1572:  GOTO   157A (RETURN)
.................... }
.................... void configurar_puertos8()
.................... {
....................     set_tris_b(0x08); // Configurar puerto D como salida 0000 1000 
*
157E:  MOVLW  08
1580:  MOVWF  F93
....................     set_tris_c(0x04); // Configurar puerto C como salida 0000 0100
1582:  MOVLW  04
1584:  MOVWF  F94
....................     output_b(0xF7); // Colocar puerto D 1111 0111
1586:  MOVLW  F7
1588:  MOVWF  F8A
....................     output_c(0xFB);// colocar puerto c 1111 1011
158A:  MOVLW  FB
158C:  MOVWF  F8B
158E:  GOTO   1596 (RETURN)
.................... }
.................... void configurar_puertoslm224()
.................... {
....................     set_tris_b(0x00);// puerto c entrada 0000 0000
*
19CC:  MOVLW  00
19CE:  MOVWF  F93
....................     set_tris_c(0x02);// puerto c entrada 0011 0010
19D0:  MOVLW  02
19D2:  MOVWF  F94
....................     output_b(0x00); // Colocar en alto el puerto D
19D4:  CLRF   F8A
....................     output_c(0x00);
19D6:  CLRF   F8B
19D8:  GOTO   19E0 (RETURN)
.................... }
.................... void configurar_puertosPNP()
.................... {
....................     set_tris_b(0x20); // Configurar puerto D como salida 0000 0000
*
1A10:  MOVLW  20
1A12:  MOVWF  F93
....................     output_b(0x00); // Colocar puerto D 000 0001
1A14:  CLRF   F8A
1A16:  GOTO   1A1E (RETURN)
.................... }
.................... void configurar_puertosNPN()
.................... {
....................     set_tris_b(0x20); // Configurar puerto D como salida 0010 0000         CALTO  B4 ALTO E B5 BAJO ENTRADA
*
19FE:  MOVLW  20
1A00:  MOVWF  F93
....................     output_b(0x10); // Colocar puerto D 000 0001
1A02:  MOVLW  10
1A04:  MOVWF  F8A
1A06:  GOTO   1A0E (RETURN)
....................     //output_c(0x02);
....................     
.................... }
.................... void configurar_puertos358()
.................... {
....................     set_tris_b(0x11); // Configurar puerto D como salida 0001 0001
*
19E2:  MOVLW  11
19E4:  MOVWF  F93
....................     set_tris_c(0x00); // Configurar puerto C como salida 0000 0000
19E6:  MOVLW  00
19E8:  MOVWF  F94
....................     output_b(0x04); // Colocar puerto D 0000 0100
19EA:  MOVLW  04
19EC:  MOVWF  F8A
....................     output_c(0x12); // Colocar puerto D 0001 0010
19EE:  MOVLW  12
19F0:  MOVWF  F8B
19F2:  GOTO   19FA (RETURN)
.................... }
.................... void configurar_puertos741()
.................... {
....................     set_tris_b(0x20); // Configurar puerto D como salida 0010 0000
*
159A:  MOVLW  20
159C:  MOVWF  F93
....................     set_tris_c(0x00); // Configurar puerto C como salida 0000 0000
159E:  MOVLW  00
15A0:  MOVWF  F94
....................     output_b(0x10); // Colocar puerto D 0001 0001
15A2:  MOVLW  10
15A4:  MOVWF  F8A
....................     output_c(0x02); // Colocar puerto D 0100 0010
15A6:  MOVLW  02
15A8:  MOVWF  F8B
15AA:  GOTO   15B2 (RETURN)
.................... }
.................... void configurar_puertosOPTO()
.................... {
....................     set_tris_b(0x04); // Configurar puerto D como salida 0000 0100
*
1A20:  MOVLW  04
1A22:  MOVWF  F93
....................     set_tris_c(0x00); // Configurar puerto C como salida 0001 0000
1A24:  MOVLW  00
1A26:  MOVWF  F94
....................     output_b(0x12); // Colocar puerto D 0001 0010
1A28:  MOVLW  12
1A2A:  MOVWF  F8A
....................     output_c(0x00); // Colocar puerto D 0100 0000
1A2C:  CLRF   F8B
1A2E:  GOTO   1A36 (RETURN)
.................... }
.................... void configurar_puertosNAND()
.................... {
....................     set_tris_b(0x0c);// puerto c entrada 0000 1100
*
14E2:  MOVLW  0C
14E4:  MOVWF  F93
....................     set_tris_c(0x3f);// puerto c entrada 0011 1111
14E6:  MOVLW  3F
14E8:  MOVWF  F94
....................     output_b(0x00); // Colocar en alto el puerto D
14EA:  CLRF   F8A
....................     output_c(0x00);
14EC:  CLRF   F8B
14EE:  GOTO   14F6 (RETURN)
.................... }
.................... 
.................... 
.................... 
.................... void reiniciar()
.................... {
....................     limpiar_puertos();
*
12B8:  RCALL  12A6
....................     configurar_puertos();
12BA:  BRA    12AC
12BC:  RETURN 0
.................... }
.................... void SetearPuertosModo2()
.................... {
....................     limpiar_puertos();
*
14DC:  RCALL  12A6
....................     configurar_puertos2();
14DE:  BRA    14CC
14E0:  RETURN 0
....................     
.................... }
.................... void SetearPuertosModo3()
.................... {
....................     limpiar_puertos();
*
150A:  RCALL  12A6
....................     configurar_puertos3();
150C:  BRA    14FA
150E:  GOTO   29E8 (RETURN)
....................     
.................... }
.................... void SetearPuertosModo4()
.................... {
....................     limpiar_puertos();
*
1526:  RCALL  12A6
....................     configurar_puertos4();
1528:  BRA    1512
152A:  GOTO   2CF0 (RETURN)
....................     
.................... }
.................... void SetearPuertosModo5()
.................... {
....................     limpiar_puertos();
*
153E:  RCALL  12A6
....................     configurar_puertos5();
1540:  BRA    152E
1542:  GOTO   2F92 (RETURN)
....................     
.................... }
.................... void SetearPuertosModo6()
.................... {
....................     limpiar_puertos();
*
155A:  RCALL  12A6
....................     configurar_puertos6();
155C:  BRA    1546
155E:  GOTO   3286 (RETURN)
....................     
.................... }
.................... void SetearPuertosModo7()
.................... {
....................     limpiar_puertos();
*
1576:  RCALL  12A6
....................     configurar_puertos7();
1578:  BRA    1562
157A:  GOTO   3440 (RETURN)
....................     
.................... }
.................... void SetearPuertosModo8()
.................... {
....................     limpiar_puertos();
*
1592:  RCALL  12A6
....................     configurar_puertos8();
1594:  BRA    157E
1596:  GOTO   35B2 (RETURN)
....................     
.................... }
.................... void SetearPuertoslm224()
.................... {
....................     limpiar_puertos();
*
19DC:  RCALL  12A6
....................     configurar_puertoslm224();
19DE:  BRA    19CC
19E0:  RETURN 0
....................     
.................... }
.................... void SetearPuertosPNP()
.................... {
....................     limpiar_puertos();
*
1A1A:  RCALL  12A6
....................     configurar_puertosPNP();
1A1C:  BRA    1A10
1A1E:  RETURN 0
....................     
.................... }
.................... void SetearPuertosNPN()
.................... {
....................     limpiar_puertos();
*
1A0A:  RCALL  12A6
....................     configurar_puertosNPN();
1A0C:  BRA    19FE
1A0E:  RETURN 0
....................     
.................... }
.................... void SetearPuertos358()
.................... {
....................     limpiar_puertos();
*
19F6:  RCALL  12A6
....................     configurar_puertos358();
19F8:  BRA    19E2
19FA:  GOTO   3E76 (RETURN)
....................     
.................... }
.................... void SetearPuertos741()
.................... {
....................     limpiar_puertos();
*
15AE:  RCALL  12A6
....................     configurar_puertos741();
15B0:  BRA    159A
15B2:  RETURN 0
....................     
.................... }
.................... void SetearPuertosOPTO()
.................... {
....................     limpiar_puertos();
*
1A32:  RCALL  12A6
....................     configurar_puertosOPTO();
1A34:  BRA    1A20
1A36:  GOTO   489C (RETURN)
....................     
.................... }
.................... void SetearPuertosNAND()
.................... {
....................     limpiar_puertos();
*
14F2:  RCALL  12A6
....................     configurar_puertosNAND();
14F4:  BRA    14E2
14F6:  GOTO   2598 (RETURN)
....................     
.................... }
.................... 
.................... 
.................... int Boton(){
....................          if(input(PIN_A3)) {
*
13A8:  BTFSS  F80.3
13AA:  BRA    13B4
....................             return 1;
13AC:  MOVLW  01
13AE:  MOVWF  01
13B0:  BRA    13DA
....................             } else if(input(PIN_A4)) {
13B2:  BRA    13D6
13B4:  BTFSS  F80.4
13B6:  BRA    13C0
....................             return 2;
13B8:  MOVLW  02
13BA:  MOVWF  01
13BC:  BRA    13DA
....................             } else if(input(PIN_A5)) {
13BE:  BRA    13D6
13C0:  BTFSS  F80.5
13C2:  BRA    13CC
....................             return 3;
13C4:  MOVLW  03
13C6:  MOVWF  01
13C8:  BRA    13DA
....................             } else if (input(PIN_C0)) {
13CA:  BRA    13D6
13CC:  BTFSS  F82.0
13CE:  BRA    13D6
....................             return 4;
13D0:  MOVLW  04
13D2:  MOVWF  01
13D4:  BRA    13DA
....................             }
....................             return 0;
13D6:  MOVLW  00
13D8:  MOVWF  01
13DA:  RETURN 0
....................          }
....................          
.................... 
.................... void main(){
*
1A3A:  CLRF   FF8
1A3C:  BCF    FD0.7
1A3E:  BSF    07.7
1A40:  MOVLW  01
1A42:  MOVWF  1C
1A44:  MOVLW  08
1A46:  MOVWF  1D
1A48:  CLRF   26
1A4A:  CLRF   25
1A4C:  MOVLW  A4
1A4E:  MOVWF  24
1A50:  MOVLW  72
1A52:  MOVWF  23
1A54:  MOVLW  4E
1A56:  MOVWF  27
1A58:  MOVLW  02
1A5A:  MOVWF  28
1A5C:  MOVLW  10
1A5E:  MOVWF  29
1A60:  CLRF   2A
1A62:  CLRF   30
1A64:  CLRF   31
1A66:  CLRF   33
1A68:  CLRF   32
1A6A:  MOVF   FC1,W
1A6C:  ANDLW  C0
1A6E:  IORLW  0F
1A70:  MOVWF  FC1
1A72:  MOVLW  07
1A74:  MOVWF  FB4
1A76:  CLRF   1E
....................       setup_oscillator(OSC_4MHZ);
1A78:  MOVLW  60
1A7A:  MOVWF  FD3
1A7C:  CLRF   F9B
1A7E:  MOVF   FD3,W
....................       set_tris_a(0xff);// puerto a entrada
1A80:  MOVLW  FF
1A82:  MOVWF  F92
....................       set_tris_b(00001100);// puerto d salida
1A84:  MOVLW  40
1A86:  MOVWF  F93
....................       set_tris_c(0xff);// puerto c entrada
1A88:  MOVLW  FF
1A8A:  MOVWF  F94
....................       
....................       SETUP_COUNTERS(RTCC_INTERNAL,RTCC_DIV_128);
1A8C:  BCF    FD1.0
1A8E:  MOVLW  86
1A90:  MOVWF  FD5
....................       ENABLE_INTERRUPTS(GLOBAL);// Habilita las interrupciones globales
1A92:  MOVLW  C0
1A94:  IORWF  FF2,F
....................       ext_int_edge(H_TO_L); //Inicia el flanco de la interruccion de alto abajo
1A96:  BCF    FF1.6
....................       lcd_init(direccionI2C,filas,columnas);
1A98:  MOVFF  27,40
1A9C:  MOVFF  28,41
1AA0:  MOVFF  29,42
1AA4:  GOTO   11FE
....................       setup_adc_ports(0x0e);
1AA8:  MOVF   FC1,W
1AAA:  ANDLW  C0
1AAC:  IORLW  0E
1AAE:  MOVWF  FC1
....................       setup_adc(adc_clock_internal);
1AB0:  MOVF   FC0,W
1AB2:  ANDLW  C0
1AB4:  IORLW  07
1AB6:  MOVWF  FC0
1AB8:  BSF    FC0.7
1ABA:  BSF    FC2.0
....................       reiniciar();
1ABC:  CALL   12B8
....................       
....................       printf(lcd_putc,"\f");
1AC0:  MOVLW  0C
1AC2:  MOVWF  50
1AC4:  RCALL  1320
....................       lcd_gotoxy(0,1);
1AC6:  CLRF   51
1AC8:  MOVLW  01
1ACA:  MOVWF  52
1ACC:  CALL   12BE
....................       printf(lcd_putc,"UNEXPO");
1AD0:  MOVLW  FE
1AD2:  MOVWF  FF6
1AD4:  MOVLW  00
1AD6:  MOVWF  FF7
1AD8:  RCALL  1362
....................       lcd_gotoxy(0,2);
1ADA:  CLRF   51
1ADC:  MOVLW  02
1ADE:  MOVWF  52
1AE0:  CALL   12BE
....................       printf(lcd_putc,"BARQUISIMETO");
1AE4:  MOVLW  06
1AE6:  MOVWF  FF6
1AE8:  MOVLW  01
1AEA:  MOVWF  FF7
1AEC:  RCALL  1362
....................       delay_ms(200);
1AEE:  MOVLW  C8
1AF0:  MOVWF  41
1AF2:  RCALL  1382
....................       printf(lcd_putc,"\f");
1AF4:  MOVLW  0C
1AF6:  MOVWF  50
1AF8:  RCALL  1320
....................       lcd_gotoxy(0,1);
1AFA:  CLRF   51
1AFC:  MOVLW  01
1AFE:  MOVWF  52
1B00:  CALL   12BE
....................       printf(lcd_putc,"Daniela Caas");
1B04:  MOVLW  14
1B06:  MOVWF  FF6
1B08:  MOVLW  01
1B0A:  MOVWF  FF7
1B0C:  RCALL  1362
....................       lcd_gotoxy(0,2);
1B0E:  CLRF   51
1B10:  MOVLW  02
1B12:  MOVWF  52
1B14:  CALL   12BE
....................       printf(lcd_putc,"[Developer]");
1B18:  MOVLW  22
1B1A:  MOVWF  FF6
1B1C:  MOVLW  01
1B1E:  MOVWF  FF7
1B20:  RCALL  1362
....................       delay_ms(200);
1B22:  MOVLW  C8
1B24:  MOVWF  41
1B26:  RCALL  1382
....................       printf(lcd_putc,"\f");
1B28:  MOVLW  0C
1B2A:  MOVWF  50
1B2C:  CALL   1320
....................       lcd_gotoxy(0,1);
1B30:  CLRF   51
1B32:  MOVLW  01
1B34:  MOVWF  52
1B36:  CALL   12BE
....................       printf(lcd_putc,"Gabriel Gimenez");
1B3A:  MOVLW  2E
1B3C:  MOVWF  FF6
1B3E:  MOVLW  01
1B40:  MOVWF  FF7
1B42:  RCALL  1362
....................       lcd_gotoxy(0,2);
1B44:  CLRF   51
1B46:  MOVLW  02
1B48:  MOVWF  52
1B4A:  CALL   12BE
....................       printf(lcd_putc,"[Developer]");
1B4E:  MOVLW  3E
1B50:  MOVWF  FF6
1B52:  MOVLW  01
1B54:  MOVWF  FF7
1B56:  RCALL  1362
....................       delay_ms(200);
1B58:  MOVLW  C8
1B5A:  MOVWF  41
1B5C:  RCALL  1382
....................       printf(lcd_putc,"\f");
1B5E:  MOVLW  0C
1B60:  MOVWF  50
1B62:  CALL   1320
....................       lcd_gotoxy(0,1);
1B66:  CLRF   51
1B68:  MOVLW  01
1B6A:  MOVWF  52
1B6C:  CALL   12BE
....................       printf(lcd_putc,"Carlos Guedez");
1B70:  MOVLW  4A
1B72:  MOVWF  FF6
1B74:  MOVLW  01
1B76:  MOVWF  FF7
1B78:  CALL   1362
....................       lcd_gotoxy(0,2);
1B7C:  CLRF   51
1B7E:  MOVLW  02
1B80:  MOVWF  52
1B82:  CALL   12BE
....................       printf(lcd_putc,"[Developer]");
1B86:  MOVLW  58
1B88:  MOVWF  FF6
1B8A:  MOVLW  01
1B8C:  MOVWF  FF7
1B8E:  CALL   1362
....................       delay_ms(200);
1B92:  MOVLW  C8
1B94:  MOVWF  41
1B96:  CALL   1382
....................       printf(lcd_putc,"\f");
1B9A:  MOVLW  0C
1B9C:  MOVWF  50
1B9E:  CALL   1320
....................       lcd_gotoxy(0,1);
1BA2:  CLRF   51
1BA4:  MOVLW  01
1BA6:  MOVWF  52
1BA8:  CALL   12BE
....................       printf(lcd_putc,"Carlos Zambrano");
1BAC:  MOVLW  64
1BAE:  MOVWF  FF6
1BB0:  MOVLW  01
1BB2:  MOVWF  FF7
1BB4:  CALL   1362
....................       lcd_gotoxy(0,2);
1BB8:  CLRF   51
1BBA:  MOVLW  02
1BBC:  MOVWF  52
1BBE:  CALL   12BE
....................       printf(lcd_putc,"[Tutor]");
1BC2:  MOVLW  74
1BC4:  MOVWF  FF6
1BC6:  MOVLW  01
1BC8:  MOVWF  FF7
1BCA:  CALL   1362
....................       delay_ms(200);
1BCE:  MOVLW  C8
1BD0:  MOVWF  41
1BD2:  CALL   1382
....................       
.................... 
.................... MENUPRINCIPAL:
....................       while(true){
....................           printf(lcd_putc,"\f");
1BD6:  MOVLW  0C
1BD8:  MOVWF  50
1BDA:  MOVLB  0
1BDC:  CALL   1320
....................           lcd_gotoxy(0,1);
1BE0:  CLRF   51
1BE2:  MOVLW  01
1BE4:  MOVWF  52
1BE6:  CALL   12BE
....................           printf(lcd_putc,"[MENU]  2>TTL");
1BEA:  MOVLW  7C
1BEC:  MOVWF  FF6
1BEE:  MOVLW  01
1BF0:  MOVWF  FF7
1BF2:  CALL   1362
....................           lcd_gotoxy(0,2);
1BF6:  CLRF   51
1BF8:  MOVLW  02
1BFA:  MOVWF  52
1BFC:  CALL   12BE
....................           printf(lcd_putc,"1>AD620 3>Next");
1C00:  MOVLW  8A
1C02:  MOVWF  FF6
1C04:  MOVLW  01
1C06:  MOVWF  FF7
1C08:  CALL   1362
....................           delay_ms(200);
1C0C:  MOVLW  C8
1C0E:  MOVWF  41
1C10:  CALL   1382
....................           while(1){
....................              if(boton()==2){
1C14:  CALL   13A8
1C18:  MOVF   01,W
1C1A:  SUBLW  02
1C1C:  BTFSS  FD8.2
1C1E:  GOTO   373C
.................... MENUTTL:
....................       while(true){
....................           output_b(0x00); 
1C22:  CLRF   F8A
....................           printf(lcd_putc,"\f");
1C24:  MOVLW  0C
1C26:  MOVWF  50
1C28:  MOVLB  0
1C2A:  CALL   1320
....................           lcd_gotoxy(0,1);
1C2E:  CLRF   51
1C30:  MOVLW  01
1C32:  MOVWF  52
1C34:  CALL   12BE
....................           printf(lcd_putc,"MENU TTL");
1C38:  MOVLW  9A
1C3A:  MOVWF  FF6
1C3C:  MOVLW  01
1C3E:  MOVWF  FF7
1C40:  CALL   1362
....................           lcd_gotoxy(0,2);
1C44:  CLRF   51
1C46:  MOVLW  02
1C48:  MOVWF  52
1C4A:  CALL   12BE
....................           printf(lcd_putc,"1>7408 3>Next");
1C4E:  MOVLW  A4
1C50:  MOVWF  FF6
1C52:  MOVLW  01
1C54:  MOVWF  FF7
1C56:  CALL   1362
....................           delay_ms(200);
1C5A:  MOVLW  C8
1C5C:  MOVWF  41
1C5E:  CALL   1382
....................           while(1){
....................              if(Boton()==1){
1C62:  CALL   13A8
1C66:  DECFSZ 01,W
1C68:  BRA    1EDE
....................                while(1){
....................                             reiniciar();
1C6A:  CALL   12B8
....................                             set_tris_b(0x0c);// puerto c entrada 0000 1100
1C6E:  MOVLW  0C
1C70:  MOVWF  F93
....................                             set_tris_c(0x3f);// puerto c entrada 0011 0110
1C72:  MOVLW  3F
1C74:  MOVWF  F94
....................                             output_b(0xf3); // 1111 0011
1C76:  MOVLW  F3
1C78:  MOVWF  F8A
....................                             output_c(0xc0);// 1100 0000
1C7A:  MOVLW  C0
1C7C:  MOVWF  F8B
....................                             printf(lcd_putc,"\f"); //Limpiar la pantalla
1C7E:  MOVLW  0C
1C80:  MOVWF  50
1C82:  CALL   1320
....................                             lcd_gotoxy(0,1);
1C86:  CLRF   51
1C88:  MOVLW  01
1C8A:  MOVWF  52
1C8C:  CALL   12BE
....................                             printf(lcd_putc,"74LS08 Testing..."); //  escribir eso
1C90:  MOVLW  B2
1C92:  MOVWF  FF6
1C94:  MOVLW  01
1C96:  MOVWF  FF7
1C98:  CALL   1362
....................                             lcd_gotoxy(0,2);
1C9C:  CLRF   51
1C9E:  MOVLW  02
1CA0:  MOVWF  52
1CA2:  CALL   12BE
....................                             printf(lcd_putc,"2>Volver");
1CA6:  MOVLW  C4
1CA8:  MOVWF  FF6
1CAA:  MOVLW  01
1CAC:  MOVWF  FF7
1CAE:  CALL   1362
....................                             delay_ms(1000);
1CB2:  MOVLW  04
1CB4:  MOVWF  40
1CB6:  MOVLW  FA
1CB8:  MOVWF  41
1CBA:  CALL   1382
1CBE:  DECFSZ 40,F
1CC0:  BRA    1CB6
....................                             if(input(PIN_C1)==1){
1CC2:  BTFSS  F82.1
1CC4:  BRA    1D0E
....................                                  printf(lcd_putc,"\f");
1CC6:  MOVLW  0C
1CC8:  MOVWF  50
1CCA:  CALL   1320
....................                                  lcd_gotoxy(0,1);
1CCE:  CLRF   51
1CD0:  MOVLW  01
1CD2:  MOVWF  52
1CD4:  CALL   12BE
....................                                  printf(lcd_putc,"AND-1 Bueno!"); //  escribir eso
1CD8:  MOVLW  CE
1CDA:  MOVWF  FF6
1CDC:  MOVLW  01
1CDE:  MOVWF  FF7
1CE0:  CALL   1362
....................                                  lcd_gotoxy(0,2);
1CE4:  CLRF   51
1CE6:  MOVLW  02
1CE8:  MOVWF  52
1CEA:  CALL   12BE
....................                                  printf(lcd_putc,"74LS08 Testing...");
1CEE:  MOVLW  DC
1CF0:  MOVWF  FF6
1CF2:  MOVLW  01
1CF4:  MOVWF  FF7
1CF6:  CALL   1362
....................                                  delay_ms(500);
1CFA:  MOVLW  02
1CFC:  MOVWF  40
1CFE:  MOVLW  FA
1D00:  MOVWF  41
1D02:  CALL   1382
1D06:  DECFSZ 40,F
1D08:  BRA    1CFE
....................                                  Compuerta = Compuerta + 1;
1D0A:  MOVLW  01
1D0C:  ADDWF  31,F
....................                             }
....................                             if(input(PIN_C2)==1){
1D0E:  BTFSS  F82.2
1D10:  BRA    1D5A
....................                                  printf(lcd_putc,"\f");
1D12:  MOVLW  0C
1D14:  MOVWF  50
1D16:  CALL   1320
....................                                  lcd_gotoxy(0,1);
1D1A:  CLRF   51
1D1C:  MOVLW  01
1D1E:  MOVWF  52
1D20:  CALL   12BE
....................                                  printf(lcd_putc,"AND-2 Bueno!"); //  escribir eso
1D24:  MOVLW  EE
1D26:  MOVWF  FF6
1D28:  MOVLW  01
1D2A:  MOVWF  FF7
1D2C:  CALL   1362
....................                                  lcd_gotoxy(0,2);
1D30:  CLRF   51
1D32:  MOVLW  02
1D34:  MOVWF  52
1D36:  CALL   12BE
....................                                  printf(lcd_putc,"74LS08 Testing...");
1D3A:  MOVLW  FC
1D3C:  MOVWF  FF6
1D3E:  MOVLW  01
1D40:  MOVWF  FF7
1D42:  CALL   1362
....................                                  delay_ms(500);
1D46:  MOVLW  02
1D48:  MOVWF  40
1D4A:  MOVLW  FA
1D4C:  MOVWF  41
1D4E:  CALL   1382
1D52:  DECFSZ 40,F
1D54:  BRA    1D4A
....................                                  Compuerta = Compuerta + 1;
1D56:  MOVLW  01
1D58:  ADDWF  31,F
....................                             }
....................                             if(input(PIN_B2)==1){
1D5A:  BTFSS  F81.2
1D5C:  BRA    1DA6
....................                                  printf(lcd_putc,"\f");
1D5E:  MOVLW  0C
1D60:  MOVWF  50
1D62:  CALL   1320
....................                                  lcd_gotoxy(0,1);
1D66:  CLRF   51
1D68:  MOVLW  01
1D6A:  MOVWF  52
1D6C:  CALL   12BE
....................                                  printf(lcd_putc,"AND-3 Bueno!"); //  escribir eso
1D70:  MOVLW  0E
1D72:  MOVWF  FF6
1D74:  MOVLW  02
1D76:  MOVWF  FF7
1D78:  CALL   1362
....................                                  lcd_gotoxy(0,2);
1D7C:  CLRF   51
1D7E:  MOVLW  02
1D80:  MOVWF  52
1D82:  CALL   12BE
....................                                  printf(lcd_putc,"74LS08 Testing...");
1D86:  MOVLW  1C
1D88:  MOVWF  FF6
1D8A:  MOVLW  02
1D8C:  MOVWF  FF7
1D8E:  CALL   1362
....................                                  delay_ms(500);
1D92:  MOVLW  02
1D94:  MOVWF  40
1D96:  MOVLW  FA
1D98:  MOVWF  41
1D9A:  CALL   1382
1D9E:  DECFSZ 40,F
1DA0:  BRA    1D96
....................                                  Compuerta = Compuerta + 1;
1DA2:  MOVLW  01
1DA4:  ADDWF  31,F
....................                             } 
....................                             if(input(PIN_B3)==1){
1DA6:  BTFSS  F81.3
1DA8:  BRA    1DF2
....................                                  printf(lcd_putc,"\f");
1DAA:  MOVLW  0C
1DAC:  MOVWF  50
1DAE:  CALL   1320
....................                                  lcd_gotoxy(0,1);
1DB2:  CLRF   51
1DB4:  MOVLW  01
1DB6:  MOVWF  52
1DB8:  CALL   12BE
....................                                  printf(lcd_putc,"AND-4 Bueno!"); //  escribir eso
1DBC:  MOVLW  2E
1DBE:  MOVWF  FF6
1DC0:  MOVLW  02
1DC2:  MOVWF  FF7
1DC4:  CALL   1362
....................                                  lcd_gotoxy(0,2);
1DC8:  CLRF   51
1DCA:  MOVLW  02
1DCC:  MOVWF  52
1DCE:  CALL   12BE
....................                                  printf(lcd_putc,"74LS08 Testing...");
1DD2:  MOVLW  3C
1DD4:  MOVWF  FF6
1DD6:  MOVLW  02
1DD8:  MOVWF  FF7
1DDA:  CALL   1362
....................                                  delay_ms(500);
1DDE:  MOVLW  02
1DE0:  MOVWF  40
1DE2:  MOVLW  FA
1DE4:  MOVWF  41
1DE6:  CALL   1382
1DEA:  DECFSZ 40,F
1DEC:  BRA    1DE2
....................                                  Compuerta = Compuerta + 1;
1DEE:  MOVLW  01
1DF0:  ADDWF  31,F
....................                             }   
....................                             if(Compuerta>=1){
1DF2:  MOVF   31,W
1DF4:  SUBLW  00
1DF6:  BC    1E88
....................                                  reiniciar();
1DF8:  CALL   12B8
....................                                  printf(lcd_putc,"\f"); //Limpiar la pantalla
1DFC:  MOVLW  0C
1DFE:  MOVWF  50
1E00:  CALL   1320
....................                                  lcd_gotoxy(0,1);
1E04:  CLRF   51
1E06:  MOVLW  01
1E08:  MOVWF  52
1E0A:  CALL   12BE
....................                                  printf(lcd_putc,"Buenos %i", Compuerta);
1E0E:  MOVLW  4E
1E10:  MOVWF  FF6
1E12:  MOVLW  02
1E14:  MOVWF  FF7
1E16:  MOVLW  07
1E18:  MOVWF  44
1E1A:  CALL   13DC
1E1E:  MOVFF  31,40
1E22:  MOVLW  18
1E24:  MOVWF  41
1E26:  CALL   1422
....................                                  lcd_gotoxy(0,2);
1E2A:  CLRF   51
1E2C:  MOVLW  02
1E2E:  MOVWF  52
1E30:  CALL   12BE
....................                                  printf(lcd_putc,"Regresando..");
1E34:  MOVLW  58
1E36:  MOVWF  FF6
1E38:  MOVLW  02
1E3A:  MOVWF  FF7
1E3C:  CALL   1362
....................                                  delay_ms(1000);
1E40:  MOVLW  04
1E42:  MOVWF  40
1E44:  MOVLW  FA
1E46:  MOVWF  41
1E48:  CALL   1382
1E4C:  DECFSZ 40,F
1E4E:  BRA    1E44
....................                                  Compuerta = 0;
1E50:  CLRF   31
....................                                  printf(lcd_putc,"\f");
1E52:  MOVLW  0C
1E54:  MOVWF  50
1E56:  CALL   1320
....................                                  lcd_gotoxy(0,1);
1E5A:  CLRF   51
1E5C:  MOVLW  01
1E5E:  MOVWF  52
1E60:  CALL   12BE
....................                                  printf(lcd_putc,"MENU TTL");
1E64:  MOVLW  66
1E66:  MOVWF  FF6
1E68:  MOVLW  02
1E6A:  MOVWF  FF7
1E6C:  CALL   1362
....................                                  lcd_gotoxy(0,2);
1E70:  CLRF   51
1E72:  MOVLW  02
1E74:  MOVWF  52
1E76:  CALL   12BE
....................                                  printf(lcd_putc,"1>7408 3>Next");
1E7A:  MOVLW  70
1E7C:  MOVWF  FF6
1E7E:  MOVLW  02
1E80:  MOVWF  FF7
1E82:  CALL   1362
....................                                 break;
1E86:  BRA    1EDE
....................                             }       
....................                   if(Boton()==2){
1E88:  CALL   13A8
1E8C:  MOVF   01,W
1E8E:  SUBLW  02
1E90:  BNZ   1EDC
....................                      reiniciar();
1E92:  CALL   12B8
....................                      printf(lcd_putc,"\f");
1E96:  MOVLW  0C
1E98:  MOVWF  50
1E9A:  CALL   1320
....................                      lcd_gotoxy(0,1);
1E9E:  CLRF   51
1EA0:  MOVLW  01
1EA2:  MOVWF  52
1EA4:  CALL   12BE
....................                      printf(lcd_putc,"MENU PRINCIPAL");
1EA8:  MOVLW  7E
1EAA:  MOVWF  FF6
1EAC:  MOVLW  02
1EAE:  MOVWF  FF7
1EB0:  CALL   1362
....................                      lcd_gotoxy(0,2);
1EB4:  CLRF   51
1EB6:  MOVLW  02
1EB8:  MOVWF  52
1EBA:  CALL   12BE
....................                      printf(lcd_putc,"1>7408 3>Next");
1EBE:  MOVLW  8E
1EC0:  MOVWF  FF6
1EC2:  MOVLW  02
1EC4:  MOVWF  FF7
1EC6:  CALL   1362
....................                      delay_ms(1000);
1ECA:  MOVLW  04
1ECC:  MOVWF  40
1ECE:  MOVLW  FA
1ED0:  MOVWF  41
1ED2:  CALL   1382
1ED6:  DECFSZ 40,F
1ED8:  BRA    1ECE
....................                      break;
1EDA:  BRA    1EDE
....................                   }
1EDC:  BRA    1C6A
....................                 }     
....................              }
....................               if(Boton()==3){
1EDE:  CALL   13A8
1EE2:  MOVF   01,W
1EE4:  SUBLW  03
1EE6:  BTFSS  FD8.2
1EE8:  GOTO   3730
.................... MENUDOS:
....................                   printf(lcd_putc,"\f");
1EEC:  MOVLW  0C
1EEE:  MOVWF  50
1EF0:  MOVLB  0
1EF2:  CALL   1320
....................                   lcd_gotoxy(0,1);
1EF6:  CLRF   51
1EF8:  MOVLW  01
1EFA:  MOVWF  52
1EFC:  CALL   12BE
....................                   printf(lcd_putc,"1>7402 2>7486");
1F00:  MOVLW  9C
1F02:  MOVWF  FF6
1F04:  MOVLW  02
1F06:  MOVWF  FF7
1F08:  CALL   1362
....................                   lcd_gotoxy(0,2);
1F0C:  CLRF   51
1F0E:  MOVLW  02
1F10:  MOVWF  52
1F12:  CALL   12BE
....................                   printf(lcd_putc,"4>7432 3>Next");
1F16:  MOVLW  AA
1F18:  MOVWF  FF6
1F1A:  MOVLW  02
1F1C:  MOVWF  FF7
1F1E:  CALL   1362
....................                   delay_ms(200);
1F22:  MOVLW  C8
1F24:  MOVWF  41
1F26:  CALL   1382
....................                   while(1){
....................                      if(Boton()==1){
1F2A:  CALL   13A8
1F2E:  DECFSZ 01,W
1F30:  BRA    2130
....................                                SetearPuertosModo2();
1F32:  CALL   14DC
....................                                printf(lcd_putc,"\f"); //Limpiar la pantalla
1F36:  MOVLW  0C
1F38:  MOVWF  50
1F3A:  CALL   1320
....................                                lcd_gotoxy(0,1);
1F3E:  CLRF   51
1F40:  MOVLW  01
1F42:  MOVWF  52
1F44:  CALL   12BE
....................                                printf(lcd_putc,"74LS02 Testing..."); //  escribir eso
1F48:  MOVLW  B8
1F4A:  MOVWF  FF6
1F4C:  MOVLW  02
1F4E:  MOVWF  FF7
1F50:  CALL   1362
....................                                lcd_gotoxy(0,2);
1F54:  CLRF   51
1F56:  MOVLW  02
1F58:  MOVWF  52
1F5A:  CALL   12BE
....................                                printf(lcd_putc,"2>Volver");
1F5E:  MOVLW  CA
1F60:  MOVWF  FF6
1F62:  MOVLW  02
1F64:  MOVWF  FF7
1F66:  CALL   1362
....................                                delay_ms(1000);
1F6A:  MOVLW  04
1F6C:  MOVWF  40
1F6E:  MOVLW  FA
1F70:  MOVWF  41
1F72:  CALL   1382
1F76:  DECFSZ 40,F
1F78:  BRA    1F6E
....................                                while(1){
....................                                   if(input(PIN_B0)==1){
1F7A:  BTFSS  F81.0
1F7C:  BRA    1FC6
....................                                        printf(lcd_putc,"\f");
1F7E:  MOVLW  0C
1F80:  MOVWF  50
1F82:  CALL   1320
....................                                        lcd_gotoxy(0,1);
1F86:  CLRF   51
1F88:  MOVLW  01
1F8A:  MOVWF  52
1F8C:  CALL   12BE
....................                                        printf(lcd_putc,"NOR-1 Bueno!"); //  escribir eso
1F90:  MOVLW  D4
1F92:  MOVWF  FF6
1F94:  MOVLW  02
1F96:  MOVWF  FF7
1F98:  CALL   1362
....................                                        lcd_gotoxy(0,2);
1F9C:  CLRF   51
1F9E:  MOVLW  02
1FA0:  MOVWF  52
1FA2:  CALL   12BE
....................                                        printf(lcd_putc,"74LS02 Testing...");
1FA6:  MOVLW  E2
1FA8:  MOVWF  FF6
1FAA:  MOVLW  02
1FAC:  MOVWF  FF7
1FAE:  CALL   1362
....................                                        delay_ms(500);
1FB2:  MOVLW  02
1FB4:  MOVWF  40
1FB6:  MOVLW  FA
1FB8:  MOVWF  41
1FBA:  CALL   1382
1FBE:  DECFSZ 40,F
1FC0:  BRA    1FB6
....................                                        Compuerta = Compuerta + 1;
1FC2:  MOVLW  01
1FC4:  ADDWF  31,F
....................                                   }
....................                                   if(input(PIN_C6)==1){
1FC6:  BTFSS  F82.6
1FC8:  BRA    2012
....................                                        printf(lcd_putc,"\f");
1FCA:  MOVLW  0C
1FCC:  MOVWF  50
1FCE:  CALL   1320
....................                                        lcd_gotoxy(0,1);
1FD2:  CLRF   51
1FD4:  MOVLW  01
1FD6:  MOVWF  52
1FD8:  CALL   12BE
....................                                        printf(lcd_putc,"NOR-2 Bueno!"); //  escribir eso
1FDC:  MOVLW  F4
1FDE:  MOVWF  FF6
1FE0:  MOVLW  02
1FE2:  MOVWF  FF7
1FE4:  CALL   1362
....................                                        lcd_gotoxy(0,2);
1FE8:  CLRF   51
1FEA:  MOVLW  02
1FEC:  MOVWF  52
1FEE:  CALL   12BE
....................                                        printf(lcd_putc,"74LS02 Testing...");
1FF2:  MOVLW  02
1FF4:  MOVWF  FF6
1FF6:  MOVLW  03
1FF8:  MOVWF  FF7
1FFA:  CALL   1362
....................                                        delay_ms(500);
1FFE:  MOVLW  02
2000:  MOVWF  40
2002:  MOVLW  FA
2004:  MOVWF  41
2006:  CALL   1382
200A:  DECFSZ 40,F
200C:  BRA    2002
....................                                        Compuerta = Compuerta + 1;
200E:  MOVLW  01
2010:  ADDWF  31,F
....................                                   }
....................                                   if(input(PIN_B6)==1){
2012:  BTFSS  F81.6
2014:  BRA    205E
....................                                        printf(lcd_putc,"\f");
2016:  MOVLW  0C
2018:  MOVWF  50
201A:  CALL   1320
....................                                        lcd_gotoxy(0,1);
201E:  CLRF   51
2020:  MOVLW  01
2022:  MOVWF  52
2024:  CALL   12BE
....................                                        printf(lcd_putc,"NOR-3 Bueno!"); //  escribir eso
2028:  MOVLW  14
202A:  MOVWF  FF6
202C:  MOVLW  03
202E:  MOVWF  FF7
2030:  CALL   1362
....................                                        lcd_gotoxy(0,2);
2034:  CLRF   51
2036:  MOVLW  02
2038:  MOVWF  52
203A:  CALL   12BE
....................                                        printf(lcd_putc,"74LS02 Testing...");
203E:  MOVLW  22
2040:  MOVWF  FF6
2042:  MOVLW  03
2044:  MOVWF  FF7
2046:  CALL   1362
....................                                        delay_ms(500);
204A:  MOVLW  02
204C:  MOVWF  40
204E:  MOVLW  FA
2050:  MOVWF  41
2052:  CALL   1382
2056:  DECFSZ 40,F
2058:  BRA    204E
....................                                        Compuerta = Compuerta + 1;
205A:  MOVLW  01
205C:  ADDWF  31,F
....................                                   } 
....................                                   if(input(PIN_B4)==1){
205E:  BTFSS  F81.4
2060:  BRA    20AA
....................                                        printf(lcd_putc,"\f");
2062:  MOVLW  0C
2064:  MOVWF  50
2066:  CALL   1320
....................                                        lcd_gotoxy(0,1);
206A:  CLRF   51
206C:  MOVLW  01
206E:  MOVWF  52
2070:  CALL   12BE
....................                                        printf(lcd_putc,"NOR-4 Bueno!"); //  escribir eso
2074:  MOVLW  34
2076:  MOVWF  FF6
2078:  MOVLW  03
207A:  MOVWF  FF7
207C:  CALL   1362
....................                                        lcd_gotoxy(0,2);
2080:  CLRF   51
2082:  MOVLW  02
2084:  MOVWF  52
2086:  CALL   12BE
....................                                        printf(lcd_putc,"74LS02 Testing...");
208A:  MOVLW  42
208C:  MOVWF  FF6
208E:  MOVLW  03
2090:  MOVWF  FF7
2092:  CALL   1362
....................                                        delay_ms(500);
2096:  MOVLW  02
2098:  MOVWF  40
209A:  MOVLW  FA
209C:  MOVWF  41
209E:  CALL   1382
20A2:  DECFSZ 40,F
20A4:  BRA    209A
....................                                        Compuerta = Compuerta + 1;
20A6:  MOVLW  01
20A8:  ADDWF  31,F
....................                                   }   
....................                                   if(Compuerta>=1){
20AA:  MOVF   31,W
20AC:  SUBLW  00
20AE:  BC    210C
....................                                        printf(lcd_putc,"\f"); //Limpiar la pantalla
20B0:  MOVLW  0C
20B2:  MOVWF  50
20B4:  CALL   1320
....................                                        lcd_gotoxy(0,1);
20B8:  CLRF   51
20BA:  MOVLW  01
20BC:  MOVWF  52
20BE:  CALL   12BE
....................                                        printf(lcd_putc,"Buenos %i", Compuerta);
20C2:  MOVLW  54
20C4:  MOVWF  FF6
20C6:  MOVLW  03
20C8:  MOVWF  FF7
20CA:  MOVLW  07
20CC:  MOVWF  44
20CE:  CALL   13DC
20D2:  MOVFF  31,40
20D6:  MOVLW  18
20D8:  MOVWF  41
20DA:  CALL   1422
....................                                        lcd_gotoxy(0,2);
20DE:  CLRF   51
20E0:  MOVLW  02
20E2:  MOVWF  52
20E4:  CALL   12BE
....................                                        printf(lcd_putc,"Regresando..");
20E8:  MOVLW  5E
20EA:  MOVWF  FF6
20EC:  MOVLW  03
20EE:  MOVWF  FF7
20F0:  CALL   1362
....................                                        reiniciar(); 
20F4:  CALL   12B8
....................                                        delay_ms(1000);
20F8:  MOVLW  04
20FA:  MOVWF  40
20FC:  MOVLW  FA
20FE:  MOVWF  41
2100:  CALL   1382
2104:  DECFSZ 40,F
2106:  BRA    20FC
....................                                        Compuerta = 0;
2108:  CLRF   31
....................                                        goto MENUDOS;
210A:  BRA    1EEC
....................                                   }
....................                                   if(Boton()==2){
210C:  CALL   13A8
2110:  MOVF   01,W
2112:  SUBLW  02
2114:  BNZ   212E
....................                                        reiniciar();
2116:  CALL   12B8
....................                                        Compuerta = 0;
211A:  CLRF   31
....................                                        delay_ms(1000);
211C:  MOVLW  04
211E:  MOVWF  40
2120:  MOVLW  FA
2122:  MOVWF  41
2124:  CALL   1382
2128:  DECFSZ 40,F
212A:  BRA    2120
....................                                        goto MENUDOS;
212C:  BRA    1EEC
....................                                  }
212E:  BRA    1F7A
....................                               }
....................                      }
....................                    
....................                      if(Boton()==2){
2130:  CALL   13A8
2134:  MOVF   01,W
2136:  SUBLW  02
2138:  BTFSS  FD8.2
213A:  BRA    2338
....................                             set_tris_b(0x0c);// puerto c entrada 0000 1100
213C:  MOVLW  0C
213E:  MOVWF  F93
....................                             set_tris_c(0x36);// puerto c entrada 0011 0110
2140:  MOVLW  36
2142:  MOVWF  F94
....................                             output_b(0x51); // 0101 0001
2144:  MOVLW  51
2146:  MOVWF  F8A
....................                             output_c(0x40);// 0100 0000
2148:  MOVLW  40
214A:  MOVWF  F8B
....................                             output_low(PIN_C2); // C2 bajo
214C:  BCF    F8B.2
....................                             printf(lcd_putc,"\f"); //Limpiar la pantalla
214E:  MOVLW  0C
2150:  MOVWF  50
2152:  CALL   1320
....................                             lcd_gotoxy(0,1);
2156:  CLRF   51
2158:  MOVLW  01
215A:  MOVWF  52
215C:  CALL   12BE
....................                             printf(lcd_putc,"74LS86 Testing..."); //  escribir eso
2160:  MOVLW  6C
2162:  MOVWF  FF6
2164:  MOVLW  03
2166:  MOVWF  FF7
2168:  CALL   1362
....................                             lcd_gotoxy(0,2);
216C:  CLRF   51
216E:  MOVLW  02
2170:  MOVWF  52
2172:  CALL   12BE
....................                             printf(lcd_putc,"2>Volver");
2176:  MOVLW  7E
2178:  MOVWF  FF6
217A:  MOVLW  03
217C:  MOVWF  FF7
217E:  CALL   1362
....................                             delay_ms(1000);
2182:  MOVLW  04
2184:  MOVWF  40
2186:  MOVLW  FA
2188:  MOVWF  41
218A:  CALL   1382
218E:  DECFSZ 40,F
2190:  BRA    2186
....................                             while(1){
....................                                if(input(PIN_C1)==1){
2192:  BTFSS  F82.1
2194:  BRA    21DE
....................                                     printf(lcd_putc,"\f");
2196:  MOVLW  0C
2198:  MOVWF  50
219A:  CALL   1320
....................                                     lcd_gotoxy(0,1);
219E:  CLRF   51
21A0:  MOVLW  01
21A2:  MOVWF  52
21A4:  CALL   12BE
....................                                     printf(lcd_putc,"XOR-1 Bueno!"); //  escribir eso
21A8:  MOVLW  88
21AA:  MOVWF  FF6
21AC:  MOVLW  03
21AE:  MOVWF  FF7
21B0:  CALL   1362
....................                                     lcd_gotoxy(0,2);
21B4:  CLRF   51
21B6:  MOVLW  02
21B8:  MOVWF  52
21BA:  CALL   12BE
....................                                     printf(lcd_putc,"74LS86 Testing...");
21BE:  MOVLW  96
21C0:  MOVWF  FF6
21C2:  MOVLW  03
21C4:  MOVWF  FF7
21C6:  CALL   1362
....................                                     delay_ms(500);
21CA:  MOVLW  02
21CC:  MOVWF  40
21CE:  MOVLW  FA
21D0:  MOVWF  41
21D2:  CALL   1382
21D6:  DECFSZ 40,F
21D8:  BRA    21CE
....................                                     Compuerta = Compuerta + 1;
21DA:  MOVLW  01
21DC:  ADDWF  31,F
....................                                }
....................                                if(input(PIN_C2)==1){
21DE:  BTFSS  F82.2
21E0:  BRA    222A
....................                                     printf(lcd_putc,"\f");
21E2:  MOVLW  0C
21E4:  MOVWF  50
21E6:  CALL   1320
....................                                     lcd_gotoxy(0,1);
21EA:  CLRF   51
21EC:  MOVLW  01
21EE:  MOVWF  52
21F0:  CALL   12BE
....................                                     printf(lcd_putc,"XOR-2 Bueno!"); //  escribir eso
21F4:  MOVLW  A8
21F6:  MOVWF  FF6
21F8:  MOVLW  03
21FA:  MOVWF  FF7
21FC:  CALL   1362
....................                                     lcd_gotoxy(0,2);
2200:  CLRF   51
2202:  MOVLW  02
2204:  MOVWF  52
2206:  CALL   12BE
....................                                     printf(lcd_putc,"74LS86 Testing...");
220A:  MOVLW  B6
220C:  MOVWF  FF6
220E:  MOVLW  03
2210:  MOVWF  FF7
2212:  CALL   1362
....................                                     delay_ms(500);
2216:  MOVLW  02
2218:  MOVWF  40
221A:  MOVLW  FA
221C:  MOVWF  41
221E:  CALL   1382
2222:  DECFSZ 40,F
2224:  BRA    221A
....................                                     Compuerta = Compuerta + 1;
2226:  MOVLW  01
2228:  ADDWF  31,F
....................                                }
....................                                if(input(PIN_B3)==1){
222A:  BTFSS  F81.3
222C:  BRA    2276
....................                                     printf(lcd_putc,"\f");
222E:  MOVLW  0C
2230:  MOVWF  50
2232:  CALL   1320
....................                                     lcd_gotoxy(0,1);
2236:  CLRF   51
2238:  MOVLW  01
223A:  MOVWF  52
223C:  CALL   12BE
....................                                     printf(lcd_putc,"XOR-3 Bueno!"); //  escribir eso
2240:  MOVLW  C8
2242:  MOVWF  FF6
2244:  MOVLW  03
2246:  MOVWF  FF7
2248:  CALL   1362
....................                                     lcd_gotoxy(0,2);
224C:  CLRF   51
224E:  MOVLW  02
2250:  MOVWF  52
2252:  CALL   12BE
....................                                     printf(lcd_putc,"74LS86 Testing...");
2256:  MOVLW  D6
2258:  MOVWF  FF6
225A:  MOVLW  03
225C:  MOVWF  FF7
225E:  CALL   1362
....................                                     delay_ms(500);
2262:  MOVLW  02
2264:  MOVWF  40
2266:  MOVLW  FA
2268:  MOVWF  41
226A:  CALL   1382
226E:  DECFSZ 40,F
2270:  BRA    2266
....................                                     Compuerta = Compuerta + 1;
2272:  MOVLW  01
2274:  ADDWF  31,F
....................                                } 
....................                                if(input(PIN_B2)==1){
2276:  BTFSS  F81.2
2278:  BRA    22C2
....................                                     printf(lcd_putc,"\f");
227A:  MOVLW  0C
227C:  MOVWF  50
227E:  CALL   1320
....................                                     lcd_gotoxy(0,1);
2282:  CLRF   51
2284:  MOVLW  01
2286:  MOVWF  52
2288:  CALL   12BE
....................                                     printf(lcd_putc,"XOR-4 Bueno!"); //  escribir eso
228C:  MOVLW  E8
228E:  MOVWF  FF6
2290:  MOVLW  03
2292:  MOVWF  FF7
2294:  CALL   1362
....................                                     lcd_gotoxy(0,2);
2298:  CLRF   51
229A:  MOVLW  02
229C:  MOVWF  52
229E:  CALL   12BE
....................                                     printf(lcd_putc,"74LS86 Testing...");
22A2:  MOVLW  F6
22A4:  MOVWF  FF6
22A6:  MOVLW  03
22A8:  MOVWF  FF7
22AA:  CALL   1362
....................                                     delay_ms(500);
22AE:  MOVLW  02
22B0:  MOVWF  40
22B2:  MOVLW  FA
22B4:  MOVWF  41
22B6:  CALL   1382
22BA:  DECFSZ 40,F
22BC:  BRA    22B2
....................                                     Compuerta = Compuerta + 1;
22BE:  MOVLW  01
22C0:  ADDWF  31,F
....................                                }   
....................                                if(Compuerta>=1){
22C2:  MOVF   31,W
22C4:  SUBLW  00
22C6:  BC    2324
....................                                     reiniciar();
22C8:  CALL   12B8
....................                                     printf(lcd_putc,"\f"); //Limpiar la pantalla
22CC:  MOVLW  0C
22CE:  MOVWF  50
22D0:  CALL   1320
....................                                     lcd_gotoxy(0,1);
22D4:  CLRF   51
22D6:  MOVLW  01
22D8:  MOVWF  52
22DA:  CALL   12BE
....................                                     printf(lcd_putc,"Buenos %i", Compuerta);
22DE:  MOVLW  08
22E0:  MOVWF  FF6
22E2:  MOVLW  04
22E4:  MOVWF  FF7
22E6:  MOVLW  07
22E8:  MOVWF  44
22EA:  CALL   13DC
22EE:  MOVFF  31,40
22F2:  MOVLW  18
22F4:  MOVWF  41
22F6:  CALL   1422
....................                                     lcd_gotoxy(0,2);
22FA:  CLRF   51
22FC:  MOVLW  02
22FE:  MOVWF  52
2300:  CALL   12BE
....................                                     printf(lcd_putc,"Regresando..");
2304:  MOVLW  12
2306:  MOVWF  FF6
2308:  MOVLW  04
230A:  MOVWF  FF7
230C:  CALL   1362
....................                                     delay_ms(1000);
2310:  MOVLW  04
2312:  MOVWF  40
2314:  MOVLW  FA
2316:  MOVWF  41
2318:  CALL   1382
231C:  DECFSZ 40,F
231E:  BRA    2314
....................                                     Compuerta = 0;
2320:  CLRF   31
....................                                     goto MENUDOS;
2322:  BRA    1EEC
....................                                }
....................                                if(Boton()==2){
2324:  CALL   13A8
2328:  MOVF   01,W
232A:  SUBLW  02
232C:  BNZ   2336
....................                                     reiniciar();
232E:  CALL   12B8
....................                                     Compuerta = 0;
2332:  CLRF   31
....................                                     goto MENUDOS;
2334:  BRA    1EEC
....................                                }
2336:  BRA    2192
....................                             }
....................                      }
....................                      if(Boton()==4){ 
2338:  CALL   13A8
233C:  MOVF   01,W
233E:  SUBLW  04
2340:  BTFSS  FD8.2
2342:  BRA    2540
....................                             set_tris_b(0x0c);// puerto c entrada 0000 1100
2344:  MOVLW  0C
2346:  MOVWF  F93
....................                             set_tris_c(0x36);// puerto c entrada 0011 0110
2348:  MOVLW  36
234A:  MOVWF  F94
....................                             output_b(0x51); // 0101 0001
234C:  MOVLW  51
234E:  MOVWF  F8A
....................                             output_c(0x40);// 0100 0000
2350:  MOVLW  40
2352:  MOVWF  F8B
....................                             output_low(PIN_C2); // C2 bajo
2354:  BCF    F8B.2
....................                             printf(lcd_putc,"\f");
2356:  MOVLW  0C
2358:  MOVWF  50
235A:  CALL   1320
....................                             lcd_gotoxy(0,1);
235E:  CLRF   51
2360:  MOVLW  01
2362:  MOVWF  52
2364:  CALL   12BE
....................                             printf(lcd_putc,"74LS32 Testing..."); //  escribir eso
2368:  MOVLW  20
236A:  MOVWF  FF6
236C:  MOVLW  04
236E:  MOVWF  FF7
2370:  CALL   1362
....................                             lcd_gotoxy(0,2);
2374:  CLRF   51
2376:  MOVLW  02
2378:  MOVWF  52
237A:  CALL   12BE
....................                             printf(lcd_putc,"2>Volver");
237E:  MOVLW  32
2380:  MOVWF  FF6
2382:  MOVLW  04
2384:  MOVWF  FF7
2386:  CALL   1362
....................                             delay_ms(1000);
238A:  MOVLW  04
238C:  MOVWF  40
238E:  MOVLW  FA
2390:  MOVWF  41
2392:  CALL   1382
2396:  DECFSZ 40,F
2398:  BRA    238E
....................                             while(1){
....................                                if(input(PIN_C1)==1){
239A:  BTFSS  F82.1
239C:  BRA    23E6
....................                                     printf(lcd_putc,"\f");
239E:  MOVLW  0C
23A0:  MOVWF  50
23A2:  CALL   1320
....................                                     lcd_gotoxy(0,1);
23A6:  CLRF   51
23A8:  MOVLW  01
23AA:  MOVWF  52
23AC:  CALL   12BE
....................                                     printf(lcd_putc,"OR-1 Bueno!"); //  escribir eso
23B0:  MOVLW  3C
23B2:  MOVWF  FF6
23B4:  MOVLW  04
23B6:  MOVWF  FF7
23B8:  CALL   1362
....................                                     lcd_gotoxy(0,2);
23BC:  CLRF   51
23BE:  MOVLW  02
23C0:  MOVWF  52
23C2:  CALL   12BE
....................                                     printf(lcd_putc,"74LS32 Testing...");
23C6:  MOVLW  48
23C8:  MOVWF  FF6
23CA:  MOVLW  04
23CC:  MOVWF  FF7
23CE:  CALL   1362
....................                                     delay_ms(500);
23D2:  MOVLW  02
23D4:  MOVWF  40
23D6:  MOVLW  FA
23D8:  MOVWF  41
23DA:  CALL   1382
23DE:  DECFSZ 40,F
23E0:  BRA    23D6
....................                                     Compuerta = Compuerta + 1;
23E2:  MOVLW  01
23E4:  ADDWF  31,F
....................                                }
....................                                if(input(PIN_C2)==1){
23E6:  BTFSS  F82.2
23E8:  BRA    2432
....................                                     printf(lcd_putc,"\f");
23EA:  MOVLW  0C
23EC:  MOVWF  50
23EE:  CALL   1320
....................                                     lcd_gotoxy(0,1);
23F2:  CLRF   51
23F4:  MOVLW  01
23F6:  MOVWF  52
23F8:  CALL   12BE
....................                                     printf(lcd_putc,"OR-2 Bueno!"); //  escribir eso
23FC:  MOVLW  5A
23FE:  MOVWF  FF6
2400:  MOVLW  04
2402:  MOVWF  FF7
2404:  CALL   1362
....................                                     lcd_gotoxy(0,2);
2408:  CLRF   51
240A:  MOVLW  02
240C:  MOVWF  52
240E:  CALL   12BE
....................                                     printf(lcd_putc,"74LS32 Testing...");
2412:  MOVLW  66
2414:  MOVWF  FF6
2416:  MOVLW  04
2418:  MOVWF  FF7
241A:  CALL   1362
....................                                     delay_ms(500);
241E:  MOVLW  02
2420:  MOVWF  40
2422:  MOVLW  FA
2424:  MOVWF  41
2426:  CALL   1382
242A:  DECFSZ 40,F
242C:  BRA    2422
....................                                     Compuerta = Compuerta + 1;
242E:  MOVLW  01
2430:  ADDWF  31,F
....................                                }
....................                                if(input(PIN_B3)==1){
2432:  BTFSS  F81.3
2434:  BRA    247E
....................                                     printf(lcd_putc,"\f");
2436:  MOVLW  0C
2438:  MOVWF  50
243A:  CALL   1320
....................                                     lcd_gotoxy(0,1);
243E:  CLRF   51
2440:  MOVLW  01
2442:  MOVWF  52
2444:  CALL   12BE
....................                                     printf(lcd_putc,"OR-3 Bueno!"); //  escribir eso
2448:  MOVLW  78
244A:  MOVWF  FF6
244C:  MOVLW  04
244E:  MOVWF  FF7
2450:  CALL   1362
....................                                     lcd_gotoxy(0,2);
2454:  CLRF   51
2456:  MOVLW  02
2458:  MOVWF  52
245A:  CALL   12BE
....................                                     printf(lcd_putc,"74LS32 Testing...");
245E:  MOVLW  84
2460:  MOVWF  FF6
2462:  MOVLW  04
2464:  MOVWF  FF7
2466:  CALL   1362
....................                                     delay_ms(500);
246A:  MOVLW  02
246C:  MOVWF  40
246E:  MOVLW  FA
2470:  MOVWF  41
2472:  CALL   1382
2476:  DECFSZ 40,F
2478:  BRA    246E
....................                                     Compuerta = Compuerta + 1;
247A:  MOVLW  01
247C:  ADDWF  31,F
....................                                } 
....................                                if(input(PIN_B2)==1){
247E:  BTFSS  F81.2
2480:  BRA    24CA
....................                                     printf(lcd_putc,"\f");
2482:  MOVLW  0C
2484:  MOVWF  50
2486:  CALL   1320
....................                                     lcd_gotoxy(0,1);
248A:  CLRF   51
248C:  MOVLW  01
248E:  MOVWF  52
2490:  CALL   12BE
....................                                     printf(lcd_putc,"OR-4 Bueno!"); //  escribir eso
2494:  MOVLW  96
2496:  MOVWF  FF6
2498:  MOVLW  04
249A:  MOVWF  FF7
249C:  CALL   1362
....................                                     lcd_gotoxy(0,2);
24A0:  CLRF   51
24A2:  MOVLW  02
24A4:  MOVWF  52
24A6:  CALL   12BE
....................                                     printf(lcd_putc,"74LS32 Testing...");
24AA:  MOVLW  A2
24AC:  MOVWF  FF6
24AE:  MOVLW  04
24B0:  MOVWF  FF7
24B2:  CALL   1362
....................                                     delay_ms(500);
24B6:  MOVLW  02
24B8:  MOVWF  40
24BA:  MOVLW  FA
24BC:  MOVWF  41
24BE:  CALL   1382
24C2:  DECFSZ 40,F
24C4:  BRA    24BA
....................                                     Compuerta = Compuerta + 1;
24C6:  MOVLW  01
24C8:  ADDWF  31,F
....................                                }
....................                                if(Compuerta>=1){
24CA:  MOVF   31,W
24CC:  SUBLW  00
24CE:  BC    252C
....................                                     reiniciar();
24D0:  CALL   12B8
....................                                     printf(lcd_putc,"\f"); //Limpiar la pantalla
24D4:  MOVLW  0C
24D6:  MOVWF  50
24D8:  CALL   1320
....................                                     lcd_gotoxy(0,1);
24DC:  CLRF   51
24DE:  MOVLW  01
24E0:  MOVWF  52
24E2:  CALL   12BE
....................                                     printf(lcd_putc,"Buenos %i", Compuerta);
24E6:  MOVLW  B4
24E8:  MOVWF  FF6
24EA:  MOVLW  04
24EC:  MOVWF  FF7
24EE:  MOVLW  07
24F0:  MOVWF  44
24F2:  CALL   13DC
24F6:  MOVFF  31,40
24FA:  MOVLW  18
24FC:  MOVWF  41
24FE:  CALL   1422
....................                                     lcd_gotoxy(0,2);
2502:  CLRF   51
2504:  MOVLW  02
2506:  MOVWF  52
2508:  CALL   12BE
....................                                     printf(lcd_putc,"Regresando..");
250C:  MOVLW  BE
250E:  MOVWF  FF6
2510:  MOVLW  04
2512:  MOVWF  FF7
2514:  CALL   1362
....................                                     delay_ms(1000);
2518:  MOVLW  04
251A:  MOVWF  40
251C:  MOVLW  FA
251E:  MOVWF  41
2520:  CALL   1382
2524:  DECFSZ 40,F
2526:  BRA    251C
....................                                     Compuerta = 0;
2528:  CLRF   31
....................                                     goto MENUDOS;
252A:  BRA    1EEC
....................                                }
....................                                if(Boton()==2){
252C:  CALL   13A8
2530:  MOVF   01,W
2532:  SUBLW  02
2534:  BNZ   253E
....................                                     reiniciar();
2536:  CALL   12B8
....................                                     Compuerta = 0;
253A:  CLRF   31
....................                                     goto MENUDOS;
253C:  BRA    1EEC
....................                                }
253E:  BRA    239A
....................                             }
....................                      }
....................                      if(Boton()==3){
2540:  CALL   13A8
2544:  MOVF   01,W
2546:  SUBLW  03
2548:  BTFSS  FD8.2
254A:  GOTO   372C
.................... MENUTRES: 
....................                            printf(lcd_putc,"\f");
254E:  MOVLW  0C
2550:  MOVWF  50
2552:  MOVLB  0
2554:  CALL   1320
....................                            lcd_gotoxy(0,1);
2558:  CLRF   51
255A:  MOVLW  01
255C:  MOVWF  52
255E:  CALL   12BE
....................                            printf(lcd_putc,"1>7400 2>7401");
2562:  MOVLW  CC
2564:  MOVWF  FF6
2566:  MOVLW  04
2568:  MOVWF  FF7
256A:  CALL   1362
....................                            lcd_gotoxy(0,2);
256E:  CLRF   51
2570:  MOVLW  02
2572:  MOVWF  52
2574:  CALL   12BE
....................                            printf(lcd_putc,"4>7404 3>Next");
2578:  MOVLW  DA
257A:  MOVWF  FF6
257C:  MOVLW  04
257E:  MOVWF  FF7
2580:  CALL   1362
....................                            delay_ms(200);
2584:  MOVLW  C8
2586:  MOVWF  41
2588:  CALL   1382
....................                            while(1){
....................                            if(Boton()==1){
258C:  CALL   13A8
2590:  DECFSZ 01,W
2592:  BRA    27B0
....................                                SetearPuertosNAND();
2594:  GOTO   14F2
....................                                printf(lcd_putc,"\f"); //Limpiar la pantalla
2598:  MOVLW  0C
259A:  MOVWF  50
259C:  CALL   1320
....................                                lcd_gotoxy(0,1);
25A0:  CLRF   51
25A2:  MOVLW  01
25A4:  MOVWF  52
25A6:  CALL   12BE
....................                                printf(lcd_putc,"74LS00 Testing..."); //  escribir eso
25AA:  MOVLW  E8
25AC:  MOVWF  FF6
25AE:  MOVLW  04
25B0:  MOVWF  FF7
25B2:  CALL   1362
....................                                lcd_gotoxy(0,2);
25B6:  CLRF   51
25B8:  MOVLW  02
25BA:  MOVWF  52
25BC:  CALL   12BE
....................                                printf(lcd_putc,"2>Volver");
25C0:  MOVLW  FA
25C2:  MOVWF  FF6
25C4:  MOVLW  04
25C6:  MOVWF  FF7
25C8:  CALL   1362
....................                                delay_ms(1000);
25CC:  MOVLW  04
25CE:  MOVWF  40
25D0:  MOVLW  FA
25D2:  MOVWF  41
25D4:  CALL   1382
25D8:  DECFSZ 40,F
25DA:  BRA    25D0
....................                                while(1){
....................                                   if(input(PIN_C1)==1){
25DC:  BTFSS  F82.1
25DE:  BRA    2628
....................                                        printf(lcd_putc,"\f");
25E0:  MOVLW  0C
25E2:  MOVWF  50
25E4:  CALL   1320
....................                                        lcd_gotoxy(0,1);
25E8:  CLRF   51
25EA:  MOVLW  01
25EC:  MOVWF  52
25EE:  CALL   12BE
....................                                        printf(lcd_putc,"NAND-1 Bueno!"); //  escribir eso
25F2:  MOVLW  04
25F4:  MOVWF  FF6
25F6:  MOVLW  05
25F8:  MOVWF  FF7
25FA:  CALL   1362
....................                                        lcd_gotoxy(0,2);
25FE:  CLRF   51
2600:  MOVLW  02
2602:  MOVWF  52
2604:  CALL   12BE
....................                                        printf(lcd_putc,"74LS00 Testing...");
2608:  MOVLW  12
260A:  MOVWF  FF6
260C:  MOVLW  05
260E:  MOVWF  FF7
2610:  CALL   1362
....................                                        delay_ms(500);
2614:  MOVLW  02
2616:  MOVWF  40
2618:  MOVLW  FA
261A:  MOVWF  41
261C:  CALL   1382
2620:  DECFSZ 40,F
2622:  BRA    2618
....................                                        Compuerta = Compuerta + 1;
2624:  MOVLW  01
2626:  ADDWF  31,F
....................                                   }
....................                                   if(input(PIN_C2)==1){
2628:  BTFSS  F82.2
262A:  BRA    2674
....................                                        printf(lcd_putc,"\f");
262C:  MOVLW  0C
262E:  MOVWF  50
2630:  CALL   1320
....................                                        lcd_gotoxy(0,1);
2634:  CLRF   51
2636:  MOVLW  01
2638:  MOVWF  52
263A:  CALL   12BE
....................                                        printf(lcd_putc,"NAND-2 Bueno!"); //  escribir eso
263E:  MOVLW  24
2640:  MOVWF  FF6
2642:  MOVLW  05
2644:  MOVWF  FF7
2646:  CALL   1362
....................                                        lcd_gotoxy(0,2);
264A:  CLRF   51
264C:  MOVLW  02
264E:  MOVWF  52
2650:  CALL   12BE
....................                                        printf(lcd_putc,"74LS00 Testing...");
2654:  MOVLW  32
2656:  MOVWF  FF6
2658:  MOVLW  05
265A:  MOVWF  FF7
265C:  CALL   1362
....................                                        delay_ms(500);
2660:  MOVLW  02
2662:  MOVWF  40
2664:  MOVLW  FA
2666:  MOVWF  41
2668:  CALL   1382
266C:  DECFSZ 40,F
266E:  BRA    2664
....................                                        Compuerta = Compuerta + 1;
2670:  MOVLW  01
2672:  ADDWF  31,F
....................                                   }
....................                                   if(input(PIN_B2)==1){
2674:  BTFSS  F81.2
2676:  BRA    26C0
....................                                        printf(lcd_putc,"\f");
2678:  MOVLW  0C
267A:  MOVWF  50
267C:  CALL   1320
....................                                        lcd_gotoxy(0,1);
2680:  CLRF   51
2682:  MOVLW  01
2684:  MOVWF  52
2686:  CALL   12BE
....................                                        printf(lcd_putc,"NAND-3 Bueno!"); //  escribir eso
268A:  MOVLW  44
268C:  MOVWF  FF6
268E:  MOVLW  05
2690:  MOVWF  FF7
2692:  CALL   1362
....................                                        lcd_gotoxy(0,2);
2696:  CLRF   51
2698:  MOVLW  02
269A:  MOVWF  52
269C:  CALL   12BE
....................                                        printf(lcd_putc,"74LS00 Testing...");
26A0:  MOVLW  52
26A2:  MOVWF  FF6
26A4:  MOVLW  05
26A6:  MOVWF  FF7
26A8:  CALL   1362
....................                                        delay_ms(500);
26AC:  MOVLW  02
26AE:  MOVWF  40
26B0:  MOVLW  FA
26B2:  MOVWF  41
26B4:  CALL   1382
26B8:  DECFSZ 40,F
26BA:  BRA    26B0
....................                                        Compuerta = Compuerta + 1;
26BC:  MOVLW  01
26BE:  ADDWF  31,F
....................                                   } 
....................                                   if(input(PIN_B3)==1){
26C0:  BTFSS  F81.3
26C2:  BRA    270C
....................                                        printf(lcd_putc,"\f");
26C4:  MOVLW  0C
26C6:  MOVWF  50
26C8:  CALL   1320
....................                                        lcd_gotoxy(0,1);
26CC:  CLRF   51
26CE:  MOVLW  01
26D0:  MOVWF  52
26D2:  CALL   12BE
....................                                        printf(lcd_putc,"NAND-4 Bueno!"); //  escribir eso
26D6:  MOVLW  64
26D8:  MOVWF  FF6
26DA:  MOVLW  05
26DC:  MOVWF  FF7
26DE:  CALL   1362
....................                                        lcd_gotoxy(0,2);
26E2:  CLRF   51
26E4:  MOVLW  02
26E6:  MOVWF  52
26E8:  CALL   12BE
....................                                        printf(lcd_putc,"74LS00 Testing...");
26EC:  MOVLW  72
26EE:  MOVWF  FF6
26F0:  MOVLW  05
26F2:  MOVWF  FF7
26F4:  CALL   1362
....................                                        delay_ms(500);
26F8:  MOVLW  02
26FA:  MOVWF  40
26FC:  MOVLW  FA
26FE:  MOVWF  41
2700:  CALL   1382
2704:  DECFSZ 40,F
2706:  BRA    26FC
....................                                        Compuerta = Compuerta + 1;
2708:  MOVLW  01
270A:  ADDWF  31,F
....................                                   }   
....................                                   if(Compuerta>=1){
270C:  MOVF   31,W
270E:  SUBLW  00
2710:  BC    276E
....................                                        reiniciar();
2712:  CALL   12B8
....................                                        printf(lcd_putc,"\f"); //Limpiar la pantalla
2716:  MOVLW  0C
2718:  MOVWF  50
271A:  CALL   1320
....................                                        lcd_gotoxy(0,1);
271E:  CLRF   51
2720:  MOVLW  01
2722:  MOVWF  52
2724:  CALL   12BE
....................                                        printf(lcd_putc,"Buenos %i", Compuerta);
2728:  MOVLW  84
272A:  MOVWF  FF6
272C:  MOVLW  05
272E:  MOVWF  FF7
2730:  MOVLW  07
2732:  MOVWF  44
2734:  CALL   13DC
2738:  MOVFF  31,40
273C:  MOVLW  18
273E:  MOVWF  41
2740:  CALL   1422
....................                                        lcd_gotoxy(0,2);
2744:  CLRF   51
2746:  MOVLW  02
2748:  MOVWF  52
274A:  CALL   12BE
....................                                        printf(lcd_putc,"Regresando..");
274E:  MOVLW  8E
2750:  MOVWF  FF6
2752:  MOVLW  05
2754:  MOVWF  FF7
2756:  CALL   1362
....................                                        delay_ms(1000);
275A:  MOVLW  04
275C:  MOVWF  40
275E:  MOVLW  FA
2760:  MOVWF  41
2762:  CALL   1382
2766:  DECFSZ 40,F
2768:  BRA    275E
....................                                        Compuerta = 0;
276A:  CLRF   31
....................                                        goto MENUTRES;
276C:  BRA    254E
....................                                   }
....................                                   if(Boton()==2){
276E:  CALL   13A8
2772:  MOVF   01,W
2774:  SUBLW  02
2776:  BNZ   27AE
....................                                        reiniciar();
2778:  CALL   12B8
....................                                        printf(lcd_putc,"\f"); //Limpiar la pantalla
277C:  MOVLW  0C
277E:  MOVWF  50
2780:  CALL   1320
....................                                        lcd_gotoxy(0,2);
2784:  CLRF   51
2786:  MOVLW  02
2788:  MOVWF  52
278A:  CALL   12BE
....................                                        printf(lcd_putc,"Regresando..");
278E:  MOVLW  9C
2790:  MOVWF  FF6
2792:  MOVLW  05
2794:  MOVWF  FF7
2796:  CALL   1362
....................                                        delay_ms(1000);
279A:  MOVLW  04
279C:  MOVWF  40
279E:  MOVLW  FA
27A0:  MOVWF  41
27A2:  CALL   1382
27A6:  DECFSZ 40,F
27A8:  BRA    279E
....................                                        Compuerta = 0;
27AA:  CLRF   31
....................                                        goto MENUTRES;
27AC:  BRA    254E
....................                                   }
27AE:  BRA    25DC
....................                                } 
....................                            }
....................                            
....................                            if(Boton()==2){
27B0:  CALL   13A8
27B4:  MOVF   01,W
27B6:  SUBLW  02
27B8:  BTFSS  FD8.2
27BA:  BRA    29D8
....................                                SetearPuertosModo2();
27BC:  CALL   14DC
....................                                printf(lcd_putc,"\f"); //Limpiar la pantalla
27C0:  MOVLW  0C
27C2:  MOVWF  50
27C4:  CALL   1320
....................                                lcd_gotoxy(0,1);
27C8:  CLRF   51
27CA:  MOVLW  01
27CC:  MOVWF  52
27CE:  CALL   12BE
....................                                printf(lcd_putc,"74LS01 Testing..."); //  escribir eso
27D2:  MOVLW  AA
27D4:  MOVWF  FF6
27D6:  MOVLW  05
27D8:  MOVWF  FF7
27DA:  CALL   1362
....................                                lcd_gotoxy(0,2);
27DE:  CLRF   51
27E0:  MOVLW  02
27E2:  MOVWF  52
27E4:  CALL   12BE
....................                                printf(lcd_putc,"2>Volver");
27E8:  MOVLW  BC
27EA:  MOVWF  FF6
27EC:  MOVLW  05
27EE:  MOVWF  FF7
27F0:  CALL   1362
....................                                delay_ms(1000);
27F4:  MOVLW  04
27F6:  MOVWF  40
27F8:  MOVLW  FA
27FA:  MOVWF  41
27FC:  CALL   1382
2800:  DECFSZ 40,F
2802:  BRA    27F8
....................                                while(1) {
....................                                if(input(PIN_B0)==1){
2804:  BTFSS  F81.0
2806:  BRA    2850
....................                                     printf(lcd_putc,"\f");
2808:  MOVLW  0C
280A:  MOVWF  50
280C:  CALL   1320
....................                                     lcd_gotoxy(0,1);
2810:  CLRF   51
2812:  MOVLW  01
2814:  MOVWF  52
2816:  CALL   12BE
....................                                     printf(lcd_putc,"NAND-1 Bueno!"); //  escribir eso
281A:  MOVLW  C6
281C:  MOVWF  FF6
281E:  MOVLW  05
2820:  MOVWF  FF7
2822:  CALL   1362
....................                                     lcd_gotoxy(0,2);
2826:  CLRF   51
2828:  MOVLW  02
282A:  MOVWF  52
282C:  CALL   12BE
....................                                     printf(lcd_putc,"74LS01 Testing...");
2830:  MOVLW  D4
2832:  MOVWF  FF6
2834:  MOVLW  05
2836:  MOVWF  FF7
2838:  CALL   1362
....................                                     delay_ms(500);
283C:  MOVLW  02
283E:  MOVWF  40
2840:  MOVLW  FA
2842:  MOVWF  41
2844:  CALL   1382
2848:  DECFSZ 40,F
284A:  BRA    2840
....................                                     Compuerta = Compuerta + 1;
284C:  MOVLW  01
284E:  ADDWF  31,F
....................                                }
....................                                if(input(PIN_C6)==1){
2850:  BTFSS  F82.6
2852:  BRA    289C
....................                                     printf(lcd_putc,"\f");
2854:  MOVLW  0C
2856:  MOVWF  50
2858:  CALL   1320
....................                                     lcd_gotoxy(0,1);
285C:  CLRF   51
285E:  MOVLW  01
2860:  MOVWF  52
2862:  CALL   12BE
....................                                     printf(lcd_putc,"NAND-2 Bueno!"); //  escribir eso
2866:  MOVLW  E6
2868:  MOVWF  FF6
286A:  MOVLW  05
286C:  MOVWF  FF7
286E:  CALL   1362
....................                                     lcd_gotoxy(0,2);
2872:  CLRF   51
2874:  MOVLW  02
2876:  MOVWF  52
2878:  CALL   12BE
....................                                     printf(lcd_putc,"74LS01 Testing...");
287C:  MOVLW  F4
287E:  MOVWF  FF6
2880:  MOVLW  05
2882:  MOVWF  FF7
2884:  CALL   1362
....................                                     delay_ms(500);
2888:  MOVLW  02
288A:  MOVWF  40
288C:  MOVLW  FA
288E:  MOVWF  41
2890:  CALL   1382
2894:  DECFSZ 40,F
2896:  BRA    288C
....................                                     Compuerta = Compuerta + 1;
2898:  MOVLW  01
289A:  ADDWF  31,F
....................                                }
....................                                if(input(PIN_B6)==1){
289C:  BTFSS  F81.6
289E:  BRA    28E8
....................                                     printf(lcd_putc,"\f");
28A0:  MOVLW  0C
28A2:  MOVWF  50
28A4:  CALL   1320
....................                                     lcd_gotoxy(0,1);
28A8:  CLRF   51
28AA:  MOVLW  01
28AC:  MOVWF  52
28AE:  CALL   12BE
....................                                     printf(lcd_putc,"NAND-3 Bueno!"); //  escribir eso
28B2:  MOVLW  06
28B4:  MOVWF  FF6
28B6:  MOVLW  06
28B8:  MOVWF  FF7
28BA:  CALL   1362
....................                                     lcd_gotoxy(0,2);
28BE:  CLRF   51
28C0:  MOVLW  02
28C2:  MOVWF  52
28C4:  CALL   12BE
....................                                     printf(lcd_putc,"74LS01 Testing...");
28C8:  MOVLW  14
28CA:  MOVWF  FF6
28CC:  MOVLW  06
28CE:  MOVWF  FF7
28D0:  CALL   1362
....................                                     delay_ms(500);
28D4:  MOVLW  02
28D6:  MOVWF  40
28D8:  MOVLW  FA
28DA:  MOVWF  41
28DC:  CALL   1382
28E0:  DECFSZ 40,F
28E2:  BRA    28D8
....................                                     Compuerta = Compuerta + 1;
28E4:  MOVLW  01
28E6:  ADDWF  31,F
....................                                } 
....................                                if(input(PIN_B4)==1){
28E8:  BTFSS  F81.4
28EA:  BRA    2934
....................                                     printf(lcd_putc,"\f");
28EC:  MOVLW  0C
28EE:  MOVWF  50
28F0:  CALL   1320
....................                                     lcd_gotoxy(0,1);
28F4:  CLRF   51
28F6:  MOVLW  01
28F8:  MOVWF  52
28FA:  CALL   12BE
....................                                     printf(lcd_putc,"NAND-4 Bueno!"); //  escribir eso
28FE:  MOVLW  26
2900:  MOVWF  FF6
2902:  MOVLW  06
2904:  MOVWF  FF7
2906:  CALL   1362
....................                                     lcd_gotoxy(0,2);
290A:  CLRF   51
290C:  MOVLW  02
290E:  MOVWF  52
2910:  CALL   12BE
....................                                     printf(lcd_putc,"74LS01 Testing...");
2914:  MOVLW  34
2916:  MOVWF  FF6
2918:  MOVLW  06
291A:  MOVWF  FF7
291C:  CALL   1362
....................                                     delay_ms(500);
2920:  MOVLW  02
2922:  MOVWF  40
2924:  MOVLW  FA
2926:  MOVWF  41
2928:  CALL   1382
292C:  DECFSZ 40,F
292E:  BRA    2924
....................                                     Compuerta = Compuerta + 1;
2930:  MOVLW  01
2932:  ADDWF  31,F
....................                                }   
....................                                if(Compuerta>=1){
2934:  MOVF   31,W
2936:  SUBLW  00
2938:  BC    2996
....................                                     reiniciar();
293A:  CALL   12B8
....................                                     printf(lcd_putc,"\f"); //Limpiar la pantalla
293E:  MOVLW  0C
2940:  MOVWF  50
2942:  CALL   1320
....................                                     lcd_gotoxy(0,1);
2946:  CLRF   51
2948:  MOVLW  01
294A:  MOVWF  52
294C:  CALL   12BE
....................                                     printf(lcd_putc,"Buenos %i", Compuerta);
2950:  MOVLW  46
2952:  MOVWF  FF6
2954:  MOVLW  06
2956:  MOVWF  FF7
2958:  MOVLW  07
295A:  MOVWF  44
295C:  CALL   13DC
2960:  MOVFF  31,40
2964:  MOVLW  18
2966:  MOVWF  41
2968:  CALL   1422
....................                                     lcd_gotoxy(0,2);
296C:  CLRF   51
296E:  MOVLW  02
2970:  MOVWF  52
2972:  CALL   12BE
....................                                     printf(lcd_putc,"Regresando..");
2976:  MOVLW  50
2978:  MOVWF  FF6
297A:  MOVLW  06
297C:  MOVWF  FF7
297E:  CALL   1362
....................                                     delay_ms(1000);
2982:  MOVLW  04
2984:  MOVWF  40
2986:  MOVLW  FA
2988:  MOVWF  41
298A:  CALL   1382
298E:  DECFSZ 40,F
2990:  BRA    2986
....................                                     Compuerta = 0;
2992:  CLRF   31
....................                                     goto MENUTRES;
2994:  BRA    254E
....................                                }
....................                                if(Boton()==2){
2996:  CALL   13A8
299A:  MOVF   01,W
299C:  SUBLW  02
299E:  BNZ   29D6
....................                                     reiniciar();
29A0:  CALL   12B8
....................                                     printf(lcd_putc,"\f"); //Limpiar la pantalla
29A4:  MOVLW  0C
29A6:  MOVWF  50
29A8:  CALL   1320
....................                                     lcd_gotoxy(0,2);
29AC:  CLRF   51
29AE:  MOVLW  02
29B0:  MOVWF  52
29B2:  CALL   12BE
....................                                     printf(lcd_putc,"Regresando..");
29B6:  MOVLW  5E
29B8:  MOVWF  FF6
29BA:  MOVLW  06
29BC:  MOVWF  FF7
29BE:  CALL   1362
....................                                     Compuerta = 0;
29C2:  CLRF   31
....................                                     delay_ms(1000);
29C4:  MOVLW  04
29C6:  MOVWF  40
29C8:  MOVLW  FA
29CA:  MOVWF  41
29CC:  CALL   1382
29D0:  DECFSZ 40,F
29D2:  BRA    29C8
....................                                     goto MENUTRES;
29D4:  BRA    254E
....................                               }
29D6:  BRA    2804
....................                                }
....................                             }
....................                         
....................                            if(Boton()==4){
29D8:  CALL   13A8
29DC:  MOVF   01,W
29DE:  SUBLW  04
29E0:  BTFSS  FD8.2
29E2:  BRA    2C98
....................                                SetearPuertosModo3();
29E4:  GOTO   150A
....................                                printf(lcd_putc,"\f"); //Limpiar la pantalla
29E8:  MOVLW  0C
29EA:  MOVWF  50
29EC:  CALL   1320
....................                                lcd_gotoxy(0,1);
29F0:  CLRF   51
29F2:  MOVLW  01
29F4:  MOVWF  52
29F6:  CALL   12BE
....................                                printf(lcd_putc,"74LS04 Testing..."); //  escribir eso
29FA:  MOVLW  6C
29FC:  MOVWF  FF6
29FE:  MOVLW  06
2A00:  MOVWF  FF7
2A02:  CALL   1362
....................                                lcd_gotoxy(0,2);
2A06:  CLRF   51
2A08:  MOVLW  02
2A0A:  MOVWF  52
2A0C:  CALL   12BE
....................                                printf(lcd_putc,"2>Volver");
2A10:  MOVLW  7E
2A12:  MOVWF  FF6
2A14:  MOVLW  06
2A16:  MOVWF  FF7
2A18:  CALL   1362
....................                                delay_ms(500);
2A1C:  MOVLW  02
2A1E:  MOVWF  40
2A20:  MOVLW  FA
2A22:  MOVWF  41
2A24:  CALL   1382
2A28:  DECFSZ 40,F
2A2A:  BRA    2A20
....................                                while(1){
....................                                   if(input(PIN_B1)==1){
2A2C:  BTFSS  F81.1
2A2E:  BRA    2A78
....................                                        printf(lcd_putc,"\f");
2A30:  MOVLW  0C
2A32:  MOVWF  50
2A34:  CALL   1320
....................                                        lcd_gotoxy(0,1);
2A38:  CLRF   51
2A3A:  MOVLW  01
2A3C:  MOVWF  52
2A3E:  CALL   12BE
....................                                        printf(lcd_putc,"NOT-1 Bueno!"); //  escribir eso
2A42:  MOVLW  88
2A44:  MOVWF  FF6
2A46:  MOVLW  06
2A48:  MOVWF  FF7
2A4A:  CALL   1362
....................                                        lcd_gotoxy(0,2);
2A4E:  CLRF   51
2A50:  MOVLW  02
2A52:  MOVWF  52
2A54:  CALL   12BE
....................                                        printf(lcd_putc,"74LS04 Testing...");
2A58:  MOVLW  96
2A5A:  MOVWF  FF6
2A5C:  MOVLW  06
2A5E:  MOVWF  FF7
2A60:  CALL   1362
....................                                        delay_ms(500);
2A64:  MOVLW  02
2A66:  MOVWF  40
2A68:  MOVLW  FA
2A6A:  MOVWF  41
2A6C:  CALL   1382
2A70:  DECFSZ 40,F
2A72:  BRA    2A68
....................                                        Compuerta = Compuerta + 1;
2A74:  MOVLW  01
2A76:  ADDWF  31,F
....................                                   }
....................                                   if(input(PIN_C6)==1){
2A78:  BTFSS  F82.6
2A7A:  BRA    2AC4
....................                                        printf(lcd_putc,"\f");
2A7C:  MOVLW  0C
2A7E:  MOVWF  50
2A80:  CALL   1320
....................                                        lcd_gotoxy(0,1);
2A84:  CLRF   51
2A86:  MOVLW  01
2A88:  MOVWF  52
2A8A:  CALL   12BE
....................                                        printf(lcd_putc,"NOT-2 Bueno!"); //  escribir eso
2A8E:  MOVLW  A8
2A90:  MOVWF  FF6
2A92:  MOVLW  06
2A94:  MOVWF  FF7
2A96:  CALL   1362
....................                                        lcd_gotoxy(0,2);
2A9A:  CLRF   51
2A9C:  MOVLW  02
2A9E:  MOVWF  52
2AA0:  CALL   12BE
....................                                        printf(lcd_putc,"74LS04 Testing...");
2AA4:  MOVLW  B6
2AA6:  MOVWF  FF6
2AA8:  MOVLW  06
2AAA:  MOVWF  FF7
2AAC:  CALL   1362
....................                                        delay_ms(500);
2AB0:  MOVLW  02
2AB2:  MOVWF  40
2AB4:  MOVLW  FA
2AB6:  MOVWF  41
2AB8:  CALL   1382
2ABC:  DECFSZ 40,F
2ABE:  BRA    2AB4
....................                                        Compuerta = Compuerta + 1;
2AC0:  MOVLW  01
2AC2:  ADDWF  31,F
....................                                   }
....................                                   if(input(PIN_C2)==1){
2AC4:  BTFSS  F82.2
2AC6:  BRA    2B10
....................                                        printf(lcd_putc,"\f");
2AC8:  MOVLW  0C
2ACA:  MOVWF  50
2ACC:  CALL   1320
....................                                        lcd_gotoxy(0,1);
2AD0:  CLRF   51
2AD2:  MOVLW  01
2AD4:  MOVWF  52
2AD6:  CALL   12BE
....................                                        printf(lcd_putc,"NOT-3 Bueno!"); //  escribir eso
2ADA:  MOVLW  C8
2ADC:  MOVWF  FF6
2ADE:  MOVLW  06
2AE0:  MOVWF  FF7
2AE2:  CALL   1362
....................                                        lcd_gotoxy(0,2);
2AE6:  CLRF   51
2AE8:  MOVLW  02
2AEA:  MOVWF  52
2AEC:  CALL   12BE
....................                                        printf(lcd_putc,"74LS04 Testing...");
2AF0:  MOVLW  D6
2AF2:  MOVWF  FF6
2AF4:  MOVLW  06
2AF6:  MOVWF  FF7
2AF8:  CALL   1362
....................                                        delay_ms(500);
2AFC:  MOVLW  02
2AFE:  MOVWF  40
2B00:  MOVLW  FA
2B02:  MOVWF  41
2B04:  CALL   1382
2B08:  DECFSZ 40,F
2B0A:  BRA    2B00
....................                                        Compuerta = Compuerta + 1;
2B0C:  MOVLW  01
2B0E:  ADDWF  31,F
....................                                   } 
....................                                   if(input(PIN_B3)==1){
2B10:  BTFSS  F81.3
2B12:  BRA    2B5C
....................                                        printf(lcd_putc,"\f");
2B14:  MOVLW  0C
2B16:  MOVWF  50
2B18:  CALL   1320
....................                                        lcd_gotoxy(0,1);
2B1C:  CLRF   51
2B1E:  MOVLW  01
2B20:  MOVWF  52
2B22:  CALL   12BE
....................                                        printf(lcd_putc,"NOT-4 Bueno!"); //  escribir eso
2B26:  MOVLW  E8
2B28:  MOVWF  FF6
2B2A:  MOVLW  06
2B2C:  MOVWF  FF7
2B2E:  CALL   1362
....................                                        lcd_gotoxy(0,2);
2B32:  CLRF   51
2B34:  MOVLW  02
2B36:  MOVWF  52
2B38:  CALL   12BE
....................                                        printf(lcd_putc,"74LS04 Testing...");
2B3C:  MOVLW  F6
2B3E:  MOVWF  FF6
2B40:  MOVLW  06
2B42:  MOVWF  FF7
2B44:  CALL   1362
....................                                        delay_ms(500);
2B48:  MOVLW  02
2B4A:  MOVWF  40
2B4C:  MOVLW  FA
2B4E:  MOVWF  41
2B50:  CALL   1382
2B54:  DECFSZ 40,F
2B56:  BRA    2B4C
....................                                        Compuerta = Compuerta + 1;
2B58:  MOVLW  01
2B5A:  ADDWF  31,F
....................                                   }   
....................                                   if(input(PIN_B6)==1){
2B5C:  BTFSS  F81.6
2B5E:  BRA    2BA8
....................                                        printf(lcd_putc,"\f");
2B60:  MOVLW  0C
2B62:  MOVWF  50
2B64:  CALL   1320
....................                                        lcd_gotoxy(0,1);
2B68:  CLRF   51
2B6A:  MOVLW  01
2B6C:  MOVWF  52
2B6E:  CALL   12BE
....................                                        printf(lcd_putc,"NOT-5 Bueno!"); //  escribir eso
2B72:  MOVLW  08
2B74:  MOVWF  FF6
2B76:  MOVLW  07
2B78:  MOVWF  FF7
2B7A:  CALL   1362
....................                                        lcd_gotoxy(0,2);
2B7E:  CLRF   51
2B80:  MOVLW  02
2B82:  MOVWF  52
2B84:  CALL   12BE
....................                                        printf(lcd_putc,"74LS04 Testing...");
2B88:  MOVLW  16
2B8A:  MOVWF  FF6
2B8C:  MOVLW  07
2B8E:  MOVWF  FF7
2B90:  CALL   1362
....................                                        delay_ms(500);
2B94:  MOVLW  02
2B96:  MOVWF  40
2B98:  MOVLW  FA
2B9A:  MOVWF  41
2B9C:  CALL   1382
2BA0:  DECFSZ 40,F
2BA2:  BRA    2B98
....................                                        Compuerta = Compuerta + 1;
2BA4:  MOVLW  01
2BA6:  ADDWF  31,F
....................                                   }  
....................                                   if(input(PIN_B5)==1){
2BA8:  BTFSS  F81.5
2BAA:  BRA    2BF4
....................                                        printf(lcd_putc,"\f");
2BAC:  MOVLW  0C
2BAE:  MOVWF  50
2BB0:  CALL   1320
....................                                        lcd_gotoxy(0,1);
2BB4:  CLRF   51
2BB6:  MOVLW  01
2BB8:  MOVWF  52
2BBA:  CALL   12BE
....................                                        printf(lcd_putc,"NOT-6 Bueno!"); //  escribir eso
2BBE:  MOVLW  28
2BC0:  MOVWF  FF6
2BC2:  MOVLW  07
2BC4:  MOVWF  FF7
2BC6:  CALL   1362
....................                                        lcd_gotoxy(0,2);
2BCA:  CLRF   51
2BCC:  MOVLW  02
2BCE:  MOVWF  52
2BD0:  CALL   12BE
....................                                        printf(lcd_putc,"74LS04 Testing...");
2BD4:  MOVLW  36
2BD6:  MOVWF  FF6
2BD8:  MOVLW  07
2BDA:  MOVWF  FF7
2BDC:  CALL   1362
....................                                        delay_ms(500);
2BE0:  MOVLW  02
2BE2:  MOVWF  40
2BE4:  MOVLW  FA
2BE6:  MOVWF  41
2BE8:  CALL   1382
2BEC:  DECFSZ 40,F
2BEE:  BRA    2BE4
....................                                        Compuerta = Compuerta + 1;
2BF0:  MOVLW  01
2BF2:  ADDWF  31,F
....................                                   }  
....................                                   if(Compuerta>=1){
2BF4:  MOVF   31,W
2BF6:  SUBLW  00
2BF8:  BC    2C56
....................                                        reiniciar();
2BFA:  CALL   12B8
....................                                        printf(lcd_putc,"\f"); //Limpiar la pantalla
2BFE:  MOVLW  0C
2C00:  MOVWF  50
2C02:  CALL   1320
....................                                        lcd_gotoxy(0,1);
2C06:  CLRF   51
2C08:  MOVLW  01
2C0A:  MOVWF  52
2C0C:  CALL   12BE
....................                                        printf(lcd_putc,"Buenos %i", Compuerta);
2C10:  MOVLW  48
2C12:  MOVWF  FF6
2C14:  MOVLW  07
2C16:  MOVWF  FF7
2C18:  MOVLW  07
2C1A:  MOVWF  44
2C1C:  CALL   13DC
2C20:  MOVFF  31,40
2C24:  MOVLW  18
2C26:  MOVWF  41
2C28:  CALL   1422
....................                                        lcd_gotoxy(0,2);
2C2C:  CLRF   51
2C2E:  MOVLW  02
2C30:  MOVWF  52
2C32:  CALL   12BE
....................                                        printf(lcd_putc,"Regresando..");
2C36:  MOVLW  52
2C38:  MOVWF  FF6
2C3A:  MOVLW  07
2C3C:  MOVWF  FF7
2C3E:  CALL   1362
....................                                        delay_ms(1000);
2C42:  MOVLW  04
2C44:  MOVWF  40
2C46:  MOVLW  FA
2C48:  MOVWF  41
2C4A:  CALL   1382
2C4E:  DECFSZ 40,F
2C50:  BRA    2C46
....................                                        Compuerta = 0;
2C52:  CLRF   31
....................                                        goto MENUTRES;
2C54:  BRA    254E
....................                                   }
....................                                   if(Boton()==2){
2C56:  CALL   13A8
2C5A:  MOVF   01,W
2C5C:  SUBLW  02
2C5E:  BNZ   2C96
....................                                        printf(lcd_putc,"\f"); //Limpiar la pantalla
2C60:  MOVLW  0C
2C62:  MOVWF  50
2C64:  CALL   1320
....................                                        lcd_gotoxy(0,2);
2C68:  CLRF   51
2C6A:  MOVLW  02
2C6C:  MOVWF  52
2C6E:  CALL   12BE
....................                                        printf(lcd_putc,"Regresando..");
2C72:  MOVLW  60
2C74:  MOVWF  FF6
2C76:  MOVLW  07
2C78:  MOVWF  FF7
2C7A:  CALL   1362
....................                                        reiniciar();
2C7E:  CALL   12B8
....................                                        Compuerta = 0;
2C82:  CLRF   31
....................                                        delay_ms(1000);
2C84:  MOVLW  04
2C86:  MOVWF  40
2C88:  MOVLW  FA
2C8A:  MOVWF  41
2C8C:  CALL   1382
2C90:  DECFSZ 40,F
2C92:  BRA    2C88
....................                                        goto MENUTRES;
2C94:  BRA    254E
....................                                   }
2C96:  BRA    2A2C
....................                                }
....................                         }
....................                            if(Boton() == 3) {
2C98:  CALL   13A8
2C9C:  MOVF   01,W
2C9E:  SUBLW  03
2CA0:  BTFSS  FD8.2
2CA2:  GOTO   3728
.................... MENUCUATRO: 
....................                                  printf(lcd_putc,"\f");
2CA6:  MOVLW  0C
2CA8:  MOVWF  50
2CAA:  MOVLB  0
2CAC:  CALL   1320
....................                                  lcd_gotoxy(0,1);
2CB0:  CLRF   51
2CB2:  MOVLW  01
2CB4:  MOVWF  52
2CB6:  CALL   12BE
....................                                  printf(lcd_putc,"1>7407 2>7430");
2CBA:  MOVLW  6E
2CBC:  MOVWF  FF6
2CBE:  MOVLW  07
2CC0:  MOVWF  FF7
2CC2:  CALL   1362
....................                                  lcd_gotoxy(0,2);
2CC6:  CLRF   51
2CC8:  MOVLW  02
2CCA:  MOVWF  52
2CCC:  CALL   12BE
....................                                  printf(lcd_putc,"4>7410 3>Next");
2CD0:  MOVLW  7C
2CD2:  MOVWF  FF6
2CD4:  MOVLW  07
2CD6:  MOVWF  FF7
2CD8:  CALL   1362
....................                                  delay_ms(200);
2CDC:  MOVLW  C8
2CDE:  MOVWF  41
2CE0:  CALL   1382
....................                                  while(1){
....................                                     if(Boton()==1){
2CE4:  CALL   13A8
2CE8:  DECFSZ 01,W
2CEA:  BRA    2F82
....................                                         SetearPuertosModo4();
2CEC:  GOTO   1526
....................                                         printf(lcd_putc,"\f"); //Limpiar la pantalla
2CF0:  MOVLW  0C
2CF2:  MOVWF  50
2CF4:  CALL   1320
....................                                         lcd_gotoxy(0,1);
2CF8:  CLRF   51
2CFA:  MOVLW  01
2CFC:  MOVWF  52
2CFE:  CALL   12BE
....................                                         printf(lcd_putc,"74LS07 Testing..."); //  escribir eso
2D02:  MOVLW  8A
2D04:  MOVWF  FF6
2D06:  MOVLW  07
2D08:  MOVWF  FF7
2D0A:  CALL   1362
....................                                         lcd_gotoxy(0,2);
2D0E:  CLRF   51
2D10:  MOVLW  02
2D12:  MOVWF  52
2D14:  CALL   12BE
....................                                         printf(lcd_putc,"2>Volver");
2D18:  MOVLW  9C
2D1A:  MOVWF  FF6
2D1C:  MOVLW  07
2D1E:  MOVWF  FF7
2D20:  CALL   1362
....................                                         delay_ms(1000);
2D24:  MOVLW  04
2D26:  MOVWF  40
2D28:  MOVLW  FA
2D2A:  MOVWF  41
2D2C:  CALL   1382
2D30:  DECFSZ 40,F
2D32:  BRA    2D28
....................                                         while(1){
....................                                            if(input(PIN_B1)==1){
2D34:  BTFSS  F81.1
2D36:  BRA    2D80
....................                                                 printf(lcd_putc,"\f");
2D38:  MOVLW  0C
2D3A:  MOVWF  50
2D3C:  CALL   1320
....................                                                 lcd_gotoxy(0,1);
2D40:  CLRF   51
2D42:  MOVLW  01
2D44:  MOVWF  52
2D46:  CALL   12BE
....................                                                 printf(lcd_putc,"BUFFER-1 Bueno!"); //  escribir eso
2D4A:  MOVLW  A6
2D4C:  MOVWF  FF6
2D4E:  MOVLW  07
2D50:  MOVWF  FF7
2D52:  CALL   1362
....................                                                 lcd_gotoxy(0,2);
2D56:  CLRF   51
2D58:  MOVLW  02
2D5A:  MOVWF  52
2D5C:  CALL   12BE
....................                                                 printf(lcd_putc,"74LS07 Testing...");
2D60:  MOVLW  B6
2D62:  MOVWF  FF6
2D64:  MOVLW  07
2D66:  MOVWF  FF7
2D68:  CALL   1362
....................                                                 delay_ms(500);
2D6C:  MOVLW  02
2D6E:  MOVWF  40
2D70:  MOVLW  FA
2D72:  MOVWF  41
2D74:  CALL   1382
2D78:  DECFSZ 40,F
2D7A:  BRA    2D70
....................                                                 Compuerta = Compuerta + 1;
2D7C:  MOVLW  01
2D7E:  ADDWF  31,F
....................                                            }
....................                                            if(input(PIN_C6)==1){
2D80:  BTFSS  F82.6
2D82:  BRA    2DCC
....................                                                 printf(lcd_putc,"\f");
2D84:  MOVLW  0C
2D86:  MOVWF  50
2D88:  CALL   1320
....................                                                 lcd_gotoxy(0,1);
2D8C:  CLRF   51
2D8E:  MOVLW  01
2D90:  MOVWF  52
2D92:  CALL   12BE
....................                                                 printf(lcd_putc,"BUFFER-2 Bueno!"); //  escribir eso
2D96:  MOVLW  C8
2D98:  MOVWF  FF6
2D9A:  MOVLW  07
2D9C:  MOVWF  FF7
2D9E:  CALL   1362
....................                                                 lcd_gotoxy(0,2);
2DA2:  CLRF   51
2DA4:  MOVLW  02
2DA6:  MOVWF  52
2DA8:  CALL   12BE
....................                                                 printf(lcd_putc,"74LS07 Testing...");
2DAC:  MOVLW  D8
2DAE:  MOVWF  FF6
2DB0:  MOVLW  07
2DB2:  MOVWF  FF7
2DB4:  CALL   1362
....................                                                 delay_ms(500);
2DB8:  MOVLW  02
2DBA:  MOVWF  40
2DBC:  MOVLW  FA
2DBE:  MOVWF  41
2DC0:  CALL   1382
2DC4:  DECFSZ 40,F
2DC6:  BRA    2DBC
....................                                                 Compuerta = Compuerta + 1;
2DC8:  MOVLW  01
2DCA:  ADDWF  31,F
....................                                            }
....................                                            if(input(PIN_C2)==1){
2DCC:  BTFSS  F82.2
2DCE:  BRA    2E18
....................                                                 printf(lcd_putc,"\f");
2DD0:  MOVLW  0C
2DD2:  MOVWF  50
2DD4:  CALL   1320
....................                                                 lcd_gotoxy(0,1);
2DD8:  CLRF   51
2DDA:  MOVLW  01
2DDC:  MOVWF  52
2DDE:  CALL   12BE
....................                                                 printf(lcd_putc,"BUFFER-3 Bueno!"); //  escribir eso
2DE2:  MOVLW  EA
2DE4:  MOVWF  FF6
2DE6:  MOVLW  07
2DE8:  MOVWF  FF7
2DEA:  CALL   1362
....................                                                 lcd_gotoxy(0,2);
2DEE:  CLRF   51
2DF0:  MOVLW  02
2DF2:  MOVWF  52
2DF4:  CALL   12BE
....................                                                 printf(lcd_putc,"74LS07 Testing...");
2DF8:  MOVLW  FA
2DFA:  MOVWF  FF6
2DFC:  MOVLW  07
2DFE:  MOVWF  FF7
2E00:  CALL   1362
....................                                                 delay_ms(500);
2E04:  MOVLW  02
2E06:  MOVWF  40
2E08:  MOVLW  FA
2E0A:  MOVWF  41
2E0C:  CALL   1382
2E10:  DECFSZ 40,F
2E12:  BRA    2E08
....................                                                 Compuerta = Compuerta + 1;
2E14:  MOVLW  01
2E16:  ADDWF  31,F
....................                                            } 
....................                                            if(input(PIN_B3)==1){
2E18:  BTFSS  F81.3
2E1A:  BRA    2E64
....................                                                 printf(lcd_putc,"\f");
2E1C:  MOVLW  0C
2E1E:  MOVWF  50
2E20:  CALL   1320
....................                                                 lcd_gotoxy(0,1);
2E24:  CLRF   51
2E26:  MOVLW  01
2E28:  MOVWF  52
2E2A:  CALL   12BE
....................                                                 printf(lcd_putc,"BUFFER-4 Bueno!"); //  escribir eso
2E2E:  MOVLW  0C
2E30:  MOVWF  FF6
2E32:  MOVLW  08
2E34:  MOVWF  FF7
2E36:  CALL   1362
....................                                                 lcd_gotoxy(0,2);
2E3A:  CLRF   51
2E3C:  MOVLW  02
2E3E:  MOVWF  52
2E40:  CALL   12BE
....................                                                 printf(lcd_putc,"74LS07 Testing...");
2E44:  MOVLW  1C
2E46:  MOVWF  FF6
2E48:  MOVLW  08
2E4A:  MOVWF  FF7
2E4C:  CALL   1362
....................                                                 delay_ms(500);
2E50:  MOVLW  02
2E52:  MOVWF  40
2E54:  MOVLW  FA
2E56:  MOVWF  41
2E58:  CALL   1382
2E5C:  DECFSZ 40,F
2E5E:  BRA    2E54
....................                                                 Compuerta = Compuerta + 1;
2E60:  MOVLW  01
2E62:  ADDWF  31,F
....................                                            }   
....................                                            if(input(PIN_B6)==1){
2E64:  BTFSS  F81.6
2E66:  BRA    2EB0
....................                                                 printf(lcd_putc,"\f");
2E68:  MOVLW  0C
2E6A:  MOVWF  50
2E6C:  CALL   1320
....................                                                 lcd_gotoxy(0,1);
2E70:  CLRF   51
2E72:  MOVLW  01
2E74:  MOVWF  52
2E76:  CALL   12BE
....................                                                 printf(lcd_putc,"BUFFER-5 Bueno!"); //  escribir eso
2E7A:  MOVLW  2E
2E7C:  MOVWF  FF6
2E7E:  MOVLW  08
2E80:  MOVWF  FF7
2E82:  CALL   1362
....................                                                 lcd_gotoxy(0,2);
2E86:  CLRF   51
2E88:  MOVLW  02
2E8A:  MOVWF  52
2E8C:  CALL   12BE
....................                                                 printf(lcd_putc,"74LS07 Testing...");
2E90:  MOVLW  3E
2E92:  MOVWF  FF6
2E94:  MOVLW  08
2E96:  MOVWF  FF7
2E98:  CALL   1362
....................                                                 delay_ms(500);
2E9C:  MOVLW  02
2E9E:  MOVWF  40
2EA0:  MOVLW  FA
2EA2:  MOVWF  41
2EA4:  CALL   1382
2EA8:  DECFSZ 40,F
2EAA:  BRA    2EA0
....................                                                 Compuerta = Compuerta + 1;
2EAC:  MOVLW  01
2EAE:  ADDWF  31,F
....................                                            }  
....................                                            if(input(PIN_B5)==1){
2EB0:  BTFSS  F81.5
2EB2:  BRA    2EFC
....................                                                 printf(lcd_putc,"\f");
2EB4:  MOVLW  0C
2EB6:  MOVWF  50
2EB8:  CALL   1320
....................                                                 lcd_gotoxy(0,1);
2EBC:  CLRF   51
2EBE:  MOVLW  01
2EC0:  MOVWF  52
2EC2:  CALL   12BE
....................                                                 printf(lcd_putc,"BUFFER-6 Bueno!"); //  escribir eso
2EC6:  MOVLW  50
2EC8:  MOVWF  FF6
2ECA:  MOVLW  08
2ECC:  MOVWF  FF7
2ECE:  CALL   1362
....................                                                 lcd_gotoxy(0,2);
2ED2:  CLRF   51
2ED4:  MOVLW  02
2ED6:  MOVWF  52
2ED8:  CALL   12BE
....................                                                 printf(lcd_putc,"74LS07 Testing...");
2EDC:  MOVLW  60
2EDE:  MOVWF  FF6
2EE0:  MOVLW  08
2EE2:  MOVWF  FF7
2EE4:  CALL   1362
....................                                                 delay_ms(500);
2EE8:  MOVLW  02
2EEA:  MOVWF  40
2EEC:  MOVLW  FA
2EEE:  MOVWF  41
2EF0:  CALL   1382
2EF4:  DECFSZ 40,F
2EF6:  BRA    2EEC
....................                                                 Compuerta = Compuerta + 1;
2EF8:  MOVLW  01
2EFA:  ADDWF  31,F
....................                                            }  
....................                                            if(Compuerta>=1){
2EFC:  MOVF   31,W
2EFE:  SUBLW  00
2F00:  BC    2F5E
....................                                                 reiniciar();
2F02:  CALL   12B8
....................                                                 printf(lcd_putc,"\f"); //Limpiar la pantalla
2F06:  MOVLW  0C
2F08:  MOVWF  50
2F0A:  CALL   1320
....................                                                 lcd_gotoxy(0,1);
2F0E:  CLRF   51
2F10:  MOVLW  01
2F12:  MOVWF  52
2F14:  CALL   12BE
....................                                                 printf(lcd_putc,"Buenos %i", Compuerta);
2F18:  MOVLW  72
2F1A:  MOVWF  FF6
2F1C:  MOVLW  08
2F1E:  MOVWF  FF7
2F20:  MOVLW  07
2F22:  MOVWF  44
2F24:  CALL   13DC
2F28:  MOVFF  31,40
2F2C:  MOVLW  18
2F2E:  MOVWF  41
2F30:  CALL   1422
....................                                                 lcd_gotoxy(0,2);
2F34:  CLRF   51
2F36:  MOVLW  02
2F38:  MOVWF  52
2F3A:  CALL   12BE
....................                                                 printf(lcd_putc,"Regresando..");
2F3E:  MOVLW  7C
2F40:  MOVWF  FF6
2F42:  MOVLW  08
2F44:  MOVWF  FF7
2F46:  CALL   1362
....................                                                 delay_ms(1000);
2F4A:  MOVLW  04
2F4C:  MOVWF  40
2F4E:  MOVLW  FA
2F50:  MOVWF  41
2F52:  CALL   1382
2F56:  DECFSZ 40,F
2F58:  BRA    2F4E
....................                                                 Compuerta = 0;
2F5A:  CLRF   31
....................                                                 goto MENUCUATRO;
2F5C:  BRA    2CA6
....................                                            }
....................                                            if(Boton()==2){
2F5E:  CALL   13A8
2F62:  MOVF   01,W
2F64:  SUBLW  02
2F66:  BNZ   2F80
....................                                                 reiniciar();
2F68:  CALL   12B8
....................                                                 Compuerta = 0;
2F6C:  CLRF   31
....................                                                 delay_ms(1000);
2F6E:  MOVLW  04
2F70:  MOVWF  40
2F72:  MOVLW  FA
2F74:  MOVWF  41
2F76:  CALL   1382
2F7A:  DECFSZ 40,F
2F7C:  BRA    2F72
....................                                                 goto MENUCUATRO;
2F7E:  BRA    2CA6
....................                                           }
2F80:  BRA    2D34
....................                                        }
....................                                  }
....................                                     if(Boton()==4){
2F82:  CALL   13A8
2F86:  MOVF   01,W
2F88:  SUBLW  04
2F8A:  BTFSS  FD8.2
2F8C:  BRA    3140
....................                                         SetearPuertosModo5();
2F8E:  GOTO   153E
....................                                         printf(lcd_putc,"\f"); //Limpiar la pantalla
2F92:  MOVLW  0C
2F94:  MOVWF  50
2F96:  CALL   1320
....................                                         lcd_gotoxy(0,1);
2F9A:  CLRF   51
2F9C:  MOVLW  01
2F9E:  MOVWF  52
2FA0:  CALL   12BE
....................                                         printf(lcd_putc,"74LS10 Testing..."); //  escribir eso
2FA4:  MOVLW  8A
2FA6:  MOVWF  FF6
2FA8:  MOVLW  08
2FAA:  MOVWF  FF7
2FAC:  CALL   1362
....................                                         lcd_gotoxy(0,2);
2FB0:  CLRF   51
2FB2:  MOVLW  02
2FB4:  MOVWF  52
2FB6:  CALL   12BE
....................                                         printf(lcd_putc,"2>Volver");
2FBA:  MOVLW  9C
2FBC:  MOVWF  FF6
2FBE:  MOVLW  08
2FC0:  MOVWF  FF7
2FC2:  CALL   1362
....................                                         delay_ms(1000);
2FC6:  MOVLW  04
2FC8:  MOVWF  40
2FCA:  MOVLW  FA
2FCC:  MOVWF  41
2FCE:  CALL   1382
2FD2:  DECFSZ 40,F
2FD4:  BRA    2FCA
....................                                         while(1){
....................                                            if(input(PIN_B5)==1){
2FD6:  BTFSS  F81.5
2FD8:  BRA    3022
....................                                                 printf(lcd_putc,"\f");
2FDA:  MOVLW  0C
2FDC:  MOVWF  50
2FDE:  CALL   1320
....................                                                 lcd_gotoxy(0,1);
2FE2:  CLRF   51
2FE4:  MOVLW  01
2FE6:  MOVWF  52
2FE8:  CALL   12BE
....................                                                 printf(lcd_putc,"NAND-1 Bueno!"); //  escribir eso
2FEC:  MOVLW  A6
2FEE:  MOVWF  FF6
2FF0:  MOVLW  08
2FF2:  MOVWF  FF7
2FF4:  CALL   1362
....................                                                 lcd_gotoxy(0,2);
2FF8:  CLRF   51
2FFA:  MOVLW  02
2FFC:  MOVWF  52
2FFE:  CALL   12BE
....................                                                 printf(lcd_putc,"74LS10 Testing...");
3002:  MOVLW  B4
3004:  MOVWF  FF6
3006:  MOVLW  08
3008:  MOVWF  FF7
300A:  CALL   1362
....................                                                 delay_ms(500);
300E:  MOVLW  02
3010:  MOVWF  40
3012:  MOVLW  FA
3014:  MOVWF  41
3016:  CALL   1382
301A:  DECFSZ 40,F
301C:  BRA    3012
....................                                                 Compuerta = Compuerta + 1;
301E:  MOVLW  01
3020:  ADDWF  31,F
....................                                            }
....................                                            if(input(PIN_B3)==1){
3022:  BTFSS  F81.3
3024:  BRA    306E
....................                                                 printf(lcd_putc,"\f");
3026:  MOVLW  0C
3028:  MOVWF  50
302A:  CALL   1320
....................                                                 lcd_gotoxy(0,1);
302E:  CLRF   51
3030:  MOVLW  01
3032:  MOVWF  52
3034:  CALL   12BE
....................                                                 printf(lcd_putc,"NAND-2 Bueno!"); //  escribir eso
3038:  MOVLW  C6
303A:  MOVWF  FF6
303C:  MOVLW  08
303E:  MOVWF  FF7
3040:  CALL   1362
....................                                                 lcd_gotoxy(0,2);
3044:  CLRF   51
3046:  MOVLW  02
3048:  MOVWF  52
304A:  CALL   12BE
....................                                                 printf(lcd_putc,"74LS10 Testing...");
304E:  MOVLW  D4
3050:  MOVWF  FF6
3052:  MOVLW  08
3054:  MOVWF  FF7
3056:  CALL   1362
....................                                                 delay_ms(500);
305A:  MOVLW  02
305C:  MOVWF  40
305E:  MOVLW  FA
3060:  MOVWF  41
3062:  CALL   1382
3066:  DECFSZ 40,F
3068:  BRA    305E
....................                                                 Compuerta = Compuerta + 1;
306A:  MOVLW  01
306C:  ADDWF  31,F
....................                                            }
....................                                            if(input(PIN_C2)==1){
306E:  BTFSS  F82.2
3070:  BRA    30BA
....................                                                 printf(lcd_putc,"\f");
3072:  MOVLW  0C
3074:  MOVWF  50
3076:  CALL   1320
....................                                                 lcd_gotoxy(0,1);
307A:  CLRF   51
307C:  MOVLW  01
307E:  MOVWF  52
3080:  CALL   12BE
....................                                                 printf(lcd_putc,"NAND-3 Bueno!"); //  escribir eso
3084:  MOVLW  E6
3086:  MOVWF  FF6
3088:  MOVLW  08
308A:  MOVWF  FF7
308C:  CALL   1362
....................                                                 lcd_gotoxy(0,2);
3090:  CLRF   51
3092:  MOVLW  02
3094:  MOVWF  52
3096:  CALL   12BE
....................                                                 printf(lcd_putc,"74LS10 Testing...");
309A:  MOVLW  F4
309C:  MOVWF  FF6
309E:  MOVLW  08
30A0:  MOVWF  FF7
30A2:  CALL   1362
....................                                                 delay_ms(500);
30A6:  MOVLW  02
30A8:  MOVWF  40
30AA:  MOVLW  FA
30AC:  MOVWF  41
30AE:  CALL   1382
30B2:  DECFSZ 40,F
30B4:  BRA    30AA
....................                                                 Compuerta = Compuerta + 1;
30B6:  MOVLW  01
30B8:  ADDWF  31,F
....................                                            }
....................                                            if(Compuerta>=1){
30BA:  MOVF   31,W
30BC:  SUBLW  00
30BE:  BC    311C
....................                                                 reiniciar();
30C0:  CALL   12B8
....................                                                 printf(lcd_putc,"\f"); //Limpiar la pantalla
30C4:  MOVLW  0C
30C6:  MOVWF  50
30C8:  CALL   1320
....................                                                 lcd_gotoxy(0,1);
30CC:  CLRF   51
30CE:  MOVLW  01
30D0:  MOVWF  52
30D2:  CALL   12BE
....................                                                 printf(lcd_putc,"Buenos %i", Compuerta);
30D6:  MOVLW  06
30D8:  MOVWF  FF6
30DA:  MOVLW  09
30DC:  MOVWF  FF7
30DE:  MOVLW  07
30E0:  MOVWF  44
30E2:  CALL   13DC
30E6:  MOVFF  31,40
30EA:  MOVLW  18
30EC:  MOVWF  41
30EE:  CALL   1422
....................                                                 lcd_gotoxy(0,2);
30F2:  CLRF   51
30F4:  MOVLW  02
30F6:  MOVWF  52
30F8:  CALL   12BE
....................                                                 printf(lcd_putc,"Regresando..");
30FC:  MOVLW  10
30FE:  MOVWF  FF6
3100:  MOVLW  09
3102:  MOVWF  FF7
3104:  CALL   1362
....................                                                 delay_ms(1000);
3108:  MOVLW  04
310A:  MOVWF  40
310C:  MOVLW  FA
310E:  MOVWF  41
3110:  CALL   1382
3114:  DECFSZ 40,F
3116:  BRA    310C
....................                                                 Compuerta = 0;
3118:  CLRF   31
....................                                                 goto MENUCUATRO;
311A:  BRA    2CA6
....................                                            }
....................                                            if(Boton()==2){
311C:  CALL   13A8
3120:  MOVF   01,W
3122:  SUBLW  02
3124:  BNZ   313E
....................                                                 reiniciar();
3126:  CALL   12B8
....................                                                 Compuerta = 0;
312A:  CLRF   31
....................                                                 delay_ms(1000);
312C:  MOVLW  04
312E:  MOVWF  40
3130:  MOVLW  FA
3132:  MOVWF  41
3134:  CALL   1382
3138:  DECFSZ 40,F
313A:  BRA    3130
....................                                                 goto MENUCUATRO;
313C:  BRA    2CA6
....................                                           }
313E:  BRA    2FD6
....................                                        }
....................                                     }
....................                                     
....................                                     if(Boton()==2){
3140:  CALL   13A8
3144:  MOVF   01,W
3146:  SUBLW  02
3148:  BNZ   322C
....................                                        reiniciar();
314A:  CALL   12B8
....................                                         set_tris_b(0x08);// puerto c entrada 0000 1000
314E:  MOVLW  08
3150:  MOVWF  F93
....................                                         set_tris_c(0x00);// puerto c entrada 0000 0000
3152:  MOVLW  00
3154:  MOVWF  F94
....................                                         output_b(0x00); // Colocar en alto el puerto D
3156:  CLRF   F8A
....................                                         output_c(0x00);
3158:  CLRF   F8B
....................                                         printf(lcd_putc,"\f"); //Limpiar la pantalla
315A:  MOVLW  0C
315C:  MOVWF  50
315E:  CALL   1320
....................                                         lcd_gotoxy(0,1);
3162:  CLRF   51
3164:  MOVLW  01
3166:  MOVWF  52
3168:  CALL   12BE
....................                                         printf(lcd_putc,"74LS30 Testing..."); //  escribir eso
316C:  MOVLW  1E
316E:  MOVWF  FF6
3170:  MOVLW  09
3172:  MOVWF  FF7
3174:  CALL   1362
....................                                         lcd_gotoxy(0,2);
3178:  CLRF   51
317A:  MOVLW  02
317C:  MOVWF  52
317E:  CALL   12BE
....................                                         printf(lcd_putc,"2>Volver");
3182:  MOVLW  30
3184:  MOVWF  FF6
3186:  MOVLW  09
3188:  MOVWF  FF7
318A:  CALL   1362
....................                                         delay_ms(1000);
318E:  MOVLW  04
3190:  MOVWF  40
3192:  MOVLW  FA
3194:  MOVWF  41
3196:  CALL   1382
319A:  DECFSZ 40,F
319C:  BRA    3192
....................                                         while(1){
....................                                         if(input(PIN_B3)==1){
319E:  BTFSS  F81.3
31A0:  BRA    31EC
....................                                              printf(lcd_putc,"\f");
31A2:  MOVLW  0C
31A4:  MOVWF  50
31A6:  CALL   1320
....................                                              lcd_gotoxy(0,1);
31AA:  CLRF   51
31AC:  MOVLW  01
31AE:  MOVWF  52
31B0:  CALL   12BE
....................                                              printf(lcd_putc,"74LS30 Bueno!"); //  escribir eso
31B4:  MOVLW  3A
31B6:  MOVWF  FF6
31B8:  MOVLW  09
31BA:  MOVWF  FF7
31BC:  CALL   1362
....................                                              lcd_gotoxy(0,2);
31C0:  CLRF   51
31C2:  MOVLW  02
31C4:  MOVWF  52
31C6:  CALL   12BE
....................                                              printf(lcd_putc,"Regresando...");
31CA:  MOVLW  48
31CC:  MOVWF  FF6
31CE:  MOVLW  09
31D0:  MOVWF  FF7
31D2:  CALL   1362
....................                                              delay_ms(1000);
31D6:  MOVLW  04
31D8:  MOVWF  40
31DA:  MOVLW  FA
31DC:  MOVWF  41
31DE:  CALL   1382
31E2:  DECFSZ 40,F
31E4:  BRA    31DA
....................                                              reiniciar();
31E6:  CALL   12B8
....................                                              goto MENUCUATRO;
31EA:  BRA    2CA6
....................                                         }
....................                                         if(Boton()==2){
31EC:  CALL   13A8
31F0:  MOVF   01,W
31F2:  SUBLW  02
31F4:  BNZ   322A
....................                                              printf(lcd_putc,"\f");
31F6:  MOVLW  0C
31F8:  MOVWF  50
31FA:  CALL   1320
....................                                              lcd_gotoxy(0,2);
31FE:  CLRF   51
3200:  MOVLW  02
3202:  MOVWF  52
3204:  CALL   12BE
....................                                              printf(lcd_putc,"Regresando...");
3208:  MOVLW  56
320A:  MOVWF  FF6
320C:  MOVLW  09
320E:  MOVWF  FF7
3210:  CALL   1362
....................                                              delay_ms(1000);
3214:  MOVLW  04
3216:  MOVWF  40
3218:  MOVLW  FA
321A:  MOVWF  41
321C:  CALL   1382
3220:  DECFSZ 40,F
3222:  BRA    3218
....................                                              reiniciar();
3224:  CALL   12B8
....................                                              goto MENUCUATRO;
3228:  BRA    2CA6
....................                                         }
322A:  BRA    319E
....................                                      } 
....................                                     }
....................                                     if(Boton() == 3) {
322C:  CALL   13A8
3230:  MOVF   01,W
3232:  SUBLW  03
3234:  BTFSS  FD8.2
3236:  BRA    3724
.................... MENUCINCO: 
....................                                     printf(lcd_putc,"\f");
3238:  MOVLW  0C
323A:  MOVWF  50
323C:  MOVLB  0
323E:  CALL   1320
....................                                     lcd_gotoxy(0,1);
3242:  CLRF   51
3244:  MOVLW  01
3246:  MOVWF  52
3248:  CALL   12BE
....................                                     printf(lcd_putc,"1>7420 2>7421");
324C:  MOVLW  64
324E:  MOVWF  FF6
3250:  MOVLW  09
3252:  MOVWF  FF7
3254:  CALL   1362
....................                                     lcd_gotoxy(0,2);
3258:  CLRF   51
325A:  MOVLW  02
325C:  MOVWF  52
325E:  CALL   12BE
....................                                     printf(lcd_putc,"4>7411 3>[Menu]");
3262:  MOVLW  72
3264:  MOVWF  FF6
3266:  MOVLW  09
3268:  MOVWF  FF7
326A:  CALL   1362
....................                                     delay_ms(200);
326E:  MOVLW  C8
3270:  MOVWF  41
3272:  CALL   1382
....................                                     while(1){
....................                                        if(Boton()==4){
3276:  CALL   13A8
327A:  MOVF   01,W
327C:  SUBLW  04
327E:  BTFSS  FD8.2
3280:  BRA    3434
....................                                         SetearPuertosModo6();
3282:  GOTO   155A
....................                                         printf(lcd_putc,"\f"); //Limpiar la pantalla
3286:  MOVLW  0C
3288:  MOVWF  50
328A:  CALL   1320
....................                                         lcd_gotoxy(0,1);
328E:  CLRF   51
3290:  MOVLW  01
3292:  MOVWF  52
3294:  CALL   12BE
....................                                         printf(lcd_putc,"74LS11 Testing..."); //  escribir eso
3298:  MOVLW  82
329A:  MOVWF  FF6
329C:  MOVLW  09
329E:  MOVWF  FF7
32A0:  CALL   1362
....................                                         lcd_gotoxy(0,2);
32A4:  CLRF   51
32A6:  MOVLW  02
32A8:  MOVWF  52
32AA:  CALL   12BE
....................                                         printf(lcd_putc,"2>Volver");
32AE:  MOVLW  94
32B0:  MOVWF  FF6
32B2:  MOVLW  09
32B4:  MOVWF  FF7
32B6:  CALL   1362
....................                                         delay_ms(1000);
32BA:  MOVLW  04
32BC:  MOVWF  40
32BE:  MOVLW  FA
32C0:  MOVWF  41
32C2:  CALL   1382
32C6:  DECFSZ 40,F
32C8:  BRA    32BE
....................                                         while(1){
....................                                            if(input(PIN_B5)==1){
32CA:  BTFSS  F81.5
32CC:  BRA    3316
....................                                                 printf(lcd_putc,"\f");
32CE:  MOVLW  0C
32D0:  MOVWF  50
32D2:  CALL   1320
....................                                                 lcd_gotoxy(0,1);
32D6:  CLRF   51
32D8:  MOVLW  01
32DA:  MOVWF  52
32DC:  CALL   12BE
....................                                                 printf(lcd_putc,"AND-1 Bueno!"); //  escribir eso
32E0:  MOVLW  9E
32E2:  MOVWF  FF6
32E4:  MOVLW  09
32E6:  MOVWF  FF7
32E8:  CALL   1362
....................                                                 lcd_gotoxy(0,2);
32EC:  CLRF   51
32EE:  MOVLW  02
32F0:  MOVWF  52
32F2:  CALL   12BE
....................                                                 printf(lcd_putc,"74LS11 Testing...");
32F6:  MOVLW  AC
32F8:  MOVWF  FF6
32FA:  MOVLW  09
32FC:  MOVWF  FF7
32FE:  CALL   1362
....................                                                 delay_ms(500);
3302:  MOVLW  02
3304:  MOVWF  40
3306:  MOVLW  FA
3308:  MOVWF  41
330A:  CALL   1382
330E:  DECFSZ 40,F
3310:  BRA    3306
....................                                                 Compuerta = Compuerta + 1;
3312:  MOVLW  01
3314:  ADDWF  31,F
....................                                            }
....................                                            if(input(PIN_B3)==1){
3316:  BTFSS  F81.3
3318:  BRA    3362
....................                                                 printf(lcd_putc,"\f");
331A:  MOVLW  0C
331C:  MOVWF  50
331E:  CALL   1320
....................                                                 lcd_gotoxy(0,1);
3322:  CLRF   51
3324:  MOVLW  01
3326:  MOVWF  52
3328:  CALL   12BE
....................                                                 printf(lcd_putc,"AND-2 Bueno!"); //  escribir eso
332C:  MOVLW  BE
332E:  MOVWF  FF6
3330:  MOVLW  09
3332:  MOVWF  FF7
3334:  CALL   1362
....................                                                 lcd_gotoxy(0,2);
3338:  CLRF   51
333A:  MOVLW  02
333C:  MOVWF  52
333E:  CALL   12BE
....................                                                 printf(lcd_putc,"74LS11 Testing...");
3342:  MOVLW  CC
3344:  MOVWF  FF6
3346:  MOVLW  09
3348:  MOVWF  FF7
334A:  CALL   1362
....................                                                 delay_ms(500);
334E:  MOVLW  02
3350:  MOVWF  40
3352:  MOVLW  FA
3354:  MOVWF  41
3356:  CALL   1382
335A:  DECFSZ 40,F
335C:  BRA    3352
....................                                                 Compuerta = Compuerta + 1;
335E:  MOVLW  01
3360:  ADDWF  31,F
....................                                            }
....................                                            if(input(PIN_C2)==1){
3362:  BTFSS  F82.2
3364:  BRA    33AE
....................                                                 printf(lcd_putc,"\f");
3366:  MOVLW  0C
3368:  MOVWF  50
336A:  CALL   1320
....................                                                 lcd_gotoxy(0,1);
336E:  CLRF   51
3370:  MOVLW  01
3372:  MOVWF  52
3374:  CALL   12BE
....................                                                 printf(lcd_putc,"AND-3 Bueno!"); //  escribir eso
3378:  MOVLW  DE
337A:  MOVWF  FF6
337C:  MOVLW  09
337E:  MOVWF  FF7
3380:  CALL   1362
....................                                                 lcd_gotoxy(0,2);
3384:  CLRF   51
3386:  MOVLW  02
3388:  MOVWF  52
338A:  CALL   12BE
....................                                                 printf(lcd_putc,"74LS11 Testing...");
338E:  MOVLW  EC
3390:  MOVWF  FF6
3392:  MOVLW  09
3394:  MOVWF  FF7
3396:  CALL   1362
....................                                                 delay_ms(500);
339A:  MOVLW  02
339C:  MOVWF  40
339E:  MOVLW  FA
33A0:  MOVWF  41
33A2:  CALL   1382
33A6:  DECFSZ 40,F
33A8:  BRA    339E
....................                                                 Compuerta = Compuerta + 1;
33AA:  MOVLW  01
33AC:  ADDWF  31,F
....................                                            }
....................                                            if(Compuerta>=1){
33AE:  MOVF   31,W
33B0:  SUBLW  00
33B2:  BC    3410
....................                                                 reiniciar();
33B4:  CALL   12B8
....................                                                 printf(lcd_putc,"\f"); //Limpiar la pantalla
33B8:  MOVLW  0C
33BA:  MOVWF  50
33BC:  CALL   1320
....................                                                 lcd_gotoxy(0,1);
33C0:  CLRF   51
33C2:  MOVLW  01
33C4:  MOVWF  52
33C6:  CALL   12BE
....................                                                 printf(lcd_putc,"Buenos %i", Compuerta);
33CA:  MOVLW  FE
33CC:  MOVWF  FF6
33CE:  MOVLW  09
33D0:  MOVWF  FF7
33D2:  MOVLW  07
33D4:  MOVWF  44
33D6:  CALL   13DC
33DA:  MOVFF  31,40
33DE:  MOVLW  18
33E0:  MOVWF  41
33E2:  CALL   1422
....................                                                 lcd_gotoxy(0,2);
33E6:  CLRF   51
33E8:  MOVLW  02
33EA:  MOVWF  52
33EC:  CALL   12BE
....................                                                 printf(lcd_putc,"Regresando..");
33F0:  MOVLW  08
33F2:  MOVWF  FF6
33F4:  MOVLW  0A
33F6:  MOVWF  FF7
33F8:  CALL   1362
....................                                                 delay_ms(1000);
33FC:  MOVLW  04
33FE:  MOVWF  40
3400:  MOVLW  FA
3402:  MOVWF  41
3404:  CALL   1382
3408:  DECFSZ 40,F
340A:  BRA    3400
....................                                                 Compuerta = 0;
340C:  CLRF   31
....................                                                 goto MENUCINCO;
340E:  BRA    3238
....................                                            }
....................                                            if(Boton()==2){
3410:  CALL   13A8
3414:  MOVF   01,W
3416:  SUBLW  02
3418:  BNZ   3432
....................                                                 reiniciar();
341A:  CALL   12B8
....................                                                 Compuerta = 0;
341E:  CLRF   31
....................                                                 delay_ms(1000);
3420:  MOVLW  04
3422:  MOVWF  40
3424:  MOVLW  FA
3426:  MOVWF  41
3428:  CALL   1382
342C:  DECFSZ 40,F
342E:  BRA    3424
....................                                                 goto MENUCINCO;
3430:  BRA    3238
....................                                           }
3432:  BRA    32CA
....................                                        }
....................                                     }
....................                                        
....................                                        if(Boton()==1){
3434:  CALL   13A8
3438:  DECFSZ 01,W
343A:  BRA    35A2
....................                                         SetearPuertosModo7();
343C:  GOTO   1576
....................                                         printf(lcd_putc,"\f"); //Limpiar la pantalla
3440:  MOVLW  0C
3442:  MOVWF  50
3444:  CALL   1320
....................                                         lcd_gotoxy(0,1);
3448:  CLRF   51
344A:  MOVLW  01
344C:  MOVWF  52
344E:  CALL   12BE
....................                                         printf(lcd_putc,"74LS20 Testing..."); //  escribir eso
3452:  MOVLW  16
3454:  MOVWF  FF6
3456:  MOVLW  0A
3458:  MOVWF  FF7
345A:  CALL   1362
....................                                         lcd_gotoxy(0,2);
345E:  CLRF   51
3460:  MOVLW  02
3462:  MOVWF  52
3464:  CALL   12BE
....................                                         printf(lcd_putc,"2>Volver");
3468:  MOVLW  28
346A:  MOVWF  FF6
346C:  MOVLW  0A
346E:  MOVWF  FF7
3470:  CALL   1362
....................                                         delay_ms(1000);
3474:  MOVLW  04
3476:  MOVWF  40
3478:  MOVLW  FA
347A:  MOVWF  41
347C:  CALL   1382
3480:  DECFSZ 40,F
3482:  BRA    3478
....................                                         while(1){
....................                                            if(input(PIN_B3)==1){
3484:  BTFSS  F81.3
3486:  BRA    34D0
....................                                                 printf(lcd_putc,"\f");
3488:  MOVLW  0C
348A:  MOVWF  50
348C:  CALL   1320
....................                                                 lcd_gotoxy(0,1);
3490:  CLRF   51
3492:  MOVLW  01
3494:  MOVWF  52
3496:  CALL   12BE
....................                                                 printf(lcd_putc,"NAND-1 Bueno!"); //  escribir eso
349A:  MOVLW  32
349C:  MOVWF  FF6
349E:  MOVLW  0A
34A0:  MOVWF  FF7
34A2:  CALL   1362
....................                                                 lcd_gotoxy(0,2);
34A6:  CLRF   51
34A8:  MOVLW  02
34AA:  MOVWF  52
34AC:  CALL   12BE
....................                                                 printf(lcd_putc,"74LS20 Testing...");
34B0:  MOVLW  40
34B2:  MOVWF  FF6
34B4:  MOVLW  0A
34B6:  MOVWF  FF7
34B8:  CALL   1362
....................                                                 delay_ms(500);
34BC:  MOVLW  02
34BE:  MOVWF  40
34C0:  MOVLW  FA
34C2:  MOVWF  41
34C4:  CALL   1382
34C8:  DECFSZ 40,F
34CA:  BRA    34C0
....................                                                 Compuerta = Compuerta + 1;
34CC:  MOVLW  01
34CE:  ADDWF  31,F
....................                                            }
....................                                            if(input(PIN_C2)==1){
34D0:  BTFSS  F82.2
34D2:  BRA    351C
....................                                                 printf(lcd_putc,"\f");
34D4:  MOVLW  0C
34D6:  MOVWF  50
34D8:  CALL   1320
....................                                                 lcd_gotoxy(0,1);
34DC:  CLRF   51
34DE:  MOVLW  01
34E0:  MOVWF  52
34E2:  CALL   12BE
....................                                                 printf(lcd_putc,"NAND-2 Bueno!"); //  escribir eso
34E6:  MOVLW  52
34E8:  MOVWF  FF6
34EA:  MOVLW  0A
34EC:  MOVWF  FF7
34EE:  CALL   1362
....................                                                 lcd_gotoxy(0,2);
34F2:  CLRF   51
34F4:  MOVLW  02
34F6:  MOVWF  52
34F8:  CALL   12BE
....................                                                 printf(lcd_putc,"74LS20 Testing...");
34FC:  MOVLW  60
34FE:  MOVWF  FF6
3500:  MOVLW  0A
3502:  MOVWF  FF7
3504:  CALL   1362
....................                                                 delay_ms(500);
3508:  MOVLW  02
350A:  MOVWF  40
350C:  MOVLW  FA
350E:  MOVWF  41
3510:  CALL   1382
3514:  DECFSZ 40,F
3516:  BRA    350C
....................                                                 Compuerta = Compuerta + 1;
3518:  MOVLW  01
351A:  ADDWF  31,F
....................                                            }
....................                                            if(Compuerta>=1){
351C:  MOVF   31,W
351E:  SUBLW  00
3520:  BC    357E
....................                                                 reiniciar();
3522:  CALL   12B8
....................                                                 printf(lcd_putc,"\f"); //Limpiar la pantalla
3526:  MOVLW  0C
3528:  MOVWF  50
352A:  CALL   1320
....................                                                 lcd_gotoxy(0,1);
352E:  CLRF   51
3530:  MOVLW  01
3532:  MOVWF  52
3534:  CALL   12BE
....................                                                 printf(lcd_putc,"Buenos %i", Compuerta);
3538:  MOVLW  72
353A:  MOVWF  FF6
353C:  MOVLW  0A
353E:  MOVWF  FF7
3540:  MOVLW  07
3542:  MOVWF  44
3544:  CALL   13DC
3548:  MOVFF  31,40
354C:  MOVLW  18
354E:  MOVWF  41
3550:  CALL   1422
....................                                                 lcd_gotoxy(0,2);
3554:  CLRF   51
3556:  MOVLW  02
3558:  MOVWF  52
355A:  CALL   12BE
....................                                                 printf(lcd_putc,"Regresando..");
355E:  MOVLW  7C
3560:  MOVWF  FF6
3562:  MOVLW  0A
3564:  MOVWF  FF7
3566:  CALL   1362
....................                                                 delay_ms(1000);
356A:  MOVLW  04
356C:  MOVWF  40
356E:  MOVLW  FA
3570:  MOVWF  41
3572:  CALL   1382
3576:  DECFSZ 40,F
3578:  BRA    356E
....................                                                 Compuerta = 0;
357A:  CLRF   31
....................                                                 goto MENUCINCO;
357C:  BRA    3238
....................                                            }
....................                                            if(Boton()==2){
357E:  CALL   13A8
3582:  MOVF   01,W
3584:  SUBLW  02
3586:  BNZ   35A0
....................                                                 reiniciar();
3588:  CALL   12B8
....................                                                 Compuerta = 0;
358C:  CLRF   31
....................                                                 delay_ms(1000);
358E:  MOVLW  04
3590:  MOVWF  40
3592:  MOVLW  FA
3594:  MOVWF  41
3596:  CALL   1382
359A:  DECFSZ 40,F
359C:  BRA    3592
....................                                                 goto MENUCINCO;
359E:  BRA    3238
....................                                           }
35A0:  BRA    3484
....................                                        }
....................                                     }
....................                                     
....................                                        if(Boton()==2){
35A2:  CALL   13A8
35A6:  MOVF   01,W
35A8:  SUBLW  02
35AA:  BTFSS  FD8.2
35AC:  BRA    3714
....................                                            SetearPuertosModo8();
35AE:  GOTO   1592
....................                                            printf(lcd_putc,"\f"); //Limpiar la pantalla
35B2:  MOVLW  0C
35B4:  MOVWF  50
35B6:  CALL   1320
....................                                            lcd_gotoxy(0,1);
35BA:  CLRF   51
35BC:  MOVLW  01
35BE:  MOVWF  52
35C0:  CALL   12BE
....................                                            printf(lcd_putc,"74LS21 Testing..."); //  escribir eso
35C4:  MOVLW  8A
35C6:  MOVWF  FF6
35C8:  MOVLW  0A
35CA:  MOVWF  FF7
35CC:  CALL   1362
....................                                            lcd_gotoxy(0,2);
35D0:  CLRF   51
35D2:  MOVLW  02
35D4:  MOVWF  52
35D6:  CALL   12BE
....................                                            printf(lcd_putc,"2>Volver");
35DA:  MOVLW  9C
35DC:  MOVWF  FF6
35DE:  MOVLW  0A
35E0:  MOVWF  FF7
35E2:  CALL   1362
....................                                            delay_ms(1000);
35E6:  MOVLW  04
35E8:  MOVWF  40
35EA:  MOVLW  FA
35EC:  MOVWF  41
35EE:  CALL   1382
35F2:  DECFSZ 40,F
35F4:  BRA    35EA
....................                                            while(1){
....................                                               if(input(PIN_B3)==1){
35F6:  BTFSS  F81.3
35F8:  BRA    3642
....................                                                    printf(lcd_putc,"\f");
35FA:  MOVLW  0C
35FC:  MOVWF  50
35FE:  CALL   1320
....................                                                    lcd_gotoxy(0,1);
3602:  CLRF   51
3604:  MOVLW  01
3606:  MOVWF  52
3608:  CALL   12BE
....................                                                    printf(lcd_putc,"AND-1 Bueno!"); //  escribir eso
360C:  MOVLW  A6
360E:  MOVWF  FF6
3610:  MOVLW  0A
3612:  MOVWF  FF7
3614:  CALL   1362
....................                                                    lcd_gotoxy(0,2);
3618:  CLRF   51
361A:  MOVLW  02
361C:  MOVWF  52
361E:  CALL   12BE
....................                                                    printf(lcd_putc,"74LS21 Testing...");
3622:  MOVLW  B4
3624:  MOVWF  FF6
3626:  MOVLW  0A
3628:  MOVWF  FF7
362A:  CALL   1362
....................                                                    delay_ms(500);
362E:  MOVLW  02
3630:  MOVWF  40
3632:  MOVLW  FA
3634:  MOVWF  41
3636:  CALL   1382
363A:  DECFSZ 40,F
363C:  BRA    3632
....................                                                    Compuerta = Compuerta + 1;
363E:  MOVLW  01
3640:  ADDWF  31,F
....................                                               }
....................                                               if(input(PIN_C2)==1){
3642:  BTFSS  F82.2
3644:  BRA    368E
....................                                                    printf(lcd_putc,"\f");
3646:  MOVLW  0C
3648:  MOVWF  50
364A:  CALL   1320
....................                                                    lcd_gotoxy(0,1);
364E:  CLRF   51
3650:  MOVLW  01
3652:  MOVWF  52
3654:  CALL   12BE
....................                                                    printf(lcd_putc,"AND-2 Bueno!"); //  escribir eso
3658:  MOVLW  C6
365A:  MOVWF  FF6
365C:  MOVLW  0A
365E:  MOVWF  FF7
3660:  CALL   1362
....................                                                    lcd_gotoxy(0,2);
3664:  CLRF   51
3666:  MOVLW  02
3668:  MOVWF  52
366A:  CALL   12BE
....................                                                    printf(lcd_putc," 74LS21 Testing...");
366E:  MOVLW  D4
3670:  MOVWF  FF6
3672:  MOVLW  0A
3674:  MOVWF  FF7
3676:  CALL   1362
....................                                                    delay_ms(500);
367A:  MOVLW  02
367C:  MOVWF  40
367E:  MOVLW  FA
3680:  MOVWF  41
3682:  CALL   1382
3686:  DECFSZ 40,F
3688:  BRA    367E
....................                                                    Compuerta = Compuerta + 1;
368A:  MOVLW  01
368C:  ADDWF  31,F
....................                                               }
....................                                               if(Compuerta>=1){
368E:  MOVF   31,W
3690:  SUBLW  00
3692:  BC    36F0
....................                                                    reiniciar();
3694:  CALL   12B8
....................                                                    printf(lcd_putc,"\f"); //Limpiar la pantalla
3698:  MOVLW  0C
369A:  MOVWF  50
369C:  CALL   1320
....................                                                    lcd_gotoxy(0,1);
36A0:  CLRF   51
36A2:  MOVLW  01
36A4:  MOVWF  52
36A6:  CALL   12BE
....................                                                    printf(lcd_putc,"Buenos %i", Compuerta);
36AA:  MOVLW  E8
36AC:  MOVWF  FF6
36AE:  MOVLW  0A
36B0:  MOVWF  FF7
36B2:  MOVLW  07
36B4:  MOVWF  44
36B6:  CALL   13DC
36BA:  MOVFF  31,40
36BE:  MOVLW  18
36C0:  MOVWF  41
36C2:  CALL   1422
....................                                                    lcd_gotoxy(0,2);
36C6:  CLRF   51
36C8:  MOVLW  02
36CA:  MOVWF  52
36CC:  CALL   12BE
....................                                                    printf(lcd_putc,"Regresando..");
36D0:  MOVLW  F2
36D2:  MOVWF  FF6
36D4:  MOVLW  0A
36D6:  MOVWF  FF7
36D8:  CALL   1362
....................                                                    delay_ms(1000);
36DC:  MOVLW  04
36DE:  MOVWF  40
36E0:  MOVLW  FA
36E2:  MOVWF  41
36E4:  CALL   1382
36E8:  DECFSZ 40,F
36EA:  BRA    36E0
....................                                                    Compuerta = 0;
36EC:  CLRF   31
....................                                                    goto MENUCINCO;
36EE:  BRA    3238
....................                                               }
....................                                               if(Boton()==2){
36F0:  CALL   13A8
36F4:  MOVF   01,W
36F6:  SUBLW  02
36F8:  BNZ   3712
....................                                                    reiniciar();
36FA:  CALL   12B8
....................                                                    Compuerta = 0;
36FE:  CLRF   31
....................                                                    delay_ms(1000);
3700:  MOVLW  04
3702:  MOVWF  40
3704:  MOVLW  FA
3706:  MOVWF  41
3708:  CALL   1382
370C:  DECFSZ 40,F
370E:  BRA    3704
....................                                                    goto MENUCINCO;
3710:  BRA    3238
....................                                              }
3712:  BRA    35F6
....................                                           }
....................                                        }
....................                                           
....................                                        if(Boton() == 3) { 
3714:  CALL   13A8
3718:  MOVF   01,W
371A:  SUBLW  03
371C:  BNZ   3722
....................                                           goto MENUPRINCIPAL;
371E:  GOTO   1BD6
....................                                        }
3722:  BRA    3276
....................                                     }
....................                                     }
3724:  GOTO   2CE4
....................                                  }
....................                             }
3728:  GOTO   258C
....................                         }
....................                      }
372C:  GOTO   1F2A
....................                   }
....................                }  
3730:  GOTO   1C62
....................             }
3734:  MOVLB  0
3736:  GOTO   1C22
373A:  MOVLB  0
....................       }
....................   
....................              }
....................              if(Boton()==1){
373C:  CALL   13A8
3740:  DECFSZ 01,W
3742:  BRA    3888
....................                reiniciar();
3744:  CALL   12B8
....................                SetearPuertos741();
3748:  CALL   15AE
....................                set_adc_channel(0);
374C:  MOVLW  00
374E:  MOVWF  01
3750:  MOVF   FC2,W
3752:  ANDLW  C3
3754:  IORWF  01,W
3756:  MOVWF  FC2
....................                delay_us(20);
3758:  MOVLW  0D
375A:  MOVWF  00
375C:  DECFSZ 00,F
375E:  BRA    375C
....................                while(1){
....................                   float valor_adc = read_adc();
....................                   float lectura= valor_adc*0.004886;
....................                   float Lecturaad620=lectura;
3760:  BSF    FC2.1
3762:  BTFSC  FC2.1
3764:  BRA    3762
3766:  MOVFF  FC4,02
376A:  MOVFF  FC3,01
376E:  MOVFF  FC4,03
3772:  MOVFF  FC3,40
3776:  MOVFF  FC4,41
377A:  GOTO   15B4
377E:  MOVFF  03,37
3782:  MOVFF  02,36
3786:  MOVFF  01,35
378A:  MOVFF  00,34
378E:  MOVFF  37,50
3792:  MOVFF  36,4F
3796:  MOVFF  35,4E
379A:  MOVFF  34,4D
379E:  MOVLW  BD
37A0:  MOVWF  54
37A2:  MOVLW  1A
37A4:  MOVWF  53
37A6:  MOVLW  20
37A8:  MOVWF  52
37AA:  MOVLW  77
37AC:  MOVWF  51
37AE:  CALL   15EC
37B2:  MOVFF  03,3B
37B6:  MOVFF  02,3A
37BA:  MOVFF  01,39
37BE:  MOVFF  00,38
37C2:  MOVFF  3B,3F
37C6:  MOVFF  3A,3E
37CA:  MOVFF  39,3D
37CE:  MOVFF  38,3C
....................                   printf(lcd_putc,"\f"); //Limpiar la pantalla
37D2:  MOVLW  0C
37D4:  MOVWF  50
37D6:  CALL   1320
....................                   lcd_gotoxy(0,1);
37DA:  CLRF   51
37DC:  MOVLW  01
37DE:  MOVWF  52
37E0:  CALL   12BE
....................                   printf(lcd_putc," AD620 Testing..."); //  escribir eso
37E4:  MOVLW  00
37E6:  MOVWF  FF6
37E8:  MOVLW  0B
37EA:  MOVWF  FF7
37EC:  CALL   1362
....................                   lcd_gotoxy(0,2);
37F0:  CLRF   51
37F2:  MOVLW  02
37F4:  MOVWF  52
37F6:  CALL   12BE
....................                   printf(lcd_putc," V:%0.2f. 2>Ret",Lecturaad620);
37FA:  MOVLW  12
37FC:  MOVWF  FF6
37FE:  MOVLW  0B
3800:  MOVWF  FF7
3802:  MOVLW  03
3804:  MOVWF  44
3806:  CALL   13DC
380A:  MOVLW  C9
380C:  MOVWF  FE9
380E:  MOVFF  3F,43
3812:  MOVFF  3E,42
3816:  MOVFF  3D,41
381A:  MOVFF  3C,40
381E:  MOVLW  02
3820:  MOVWF  44
3822:  GOTO   17AC
3826:  MOVLW  1A
3828:  MOVWF  FF6
382A:  MOVLW  0B
382C:  MOVWF  FF7
382E:  MOVLW  07
3830:  MOVWF  44
3832:  CALL   13DC
....................                   delay_ms(500);
3836:  MOVLW  02
3838:  MOVWF  40
383A:  MOVLW  FA
383C:  MOVWF  41
383E:  CALL   1382
3842:  DECFSZ 40,F
3844:  BRA    383A
....................                   if(Boton()==2){
3846:  CALL   13A8
384A:  MOVF   01,W
384C:  SUBLW  02
384E:  BNZ   3886
....................                      reiniciar();
3850:  CALL   12B8
....................                      printf(lcd_putc,"\f"); //Limpiar la pantalla
3854:  MOVLW  0C
3856:  MOVWF  50
3858:  CALL   1320
....................                      lcd_gotoxy(0,2);
385C:  CLRF   51
385E:  MOVLW  02
3860:  MOVWF  52
3862:  CALL   12BE
....................                      printf(lcd_putc,"Regresando..");
3866:  MOVLW  22
3868:  MOVWF  FF6
386A:  MOVLW  0B
386C:  MOVWF  FF7
386E:  CALL   1362
....................                      delay_ms(500);
3872:  MOVLW  02
3874:  MOVWF  40
3876:  MOVLW  FA
3878:  MOVWF  41
387A:  CALL   1382
387E:  DECFSZ 40,F
3880:  BRA    3876
....................                      goto MENUPRINCIPAL;
3882:  GOTO   1BD6
....................                   }
3886:  BRA    3760
....................                 }     
....................              }
....................              if(Boton()==3){
3888:  CALL   13A8
388C:  MOVF   01,W
388E:  SUBLW  03
3890:  BTFSS  FD8.2
3892:  GOTO   4990
.................... MENUBOTON3:
....................                printf(lcd_putc,"\f");
3896:  MOVLW  0C
3898:  MOVWF  50
389A:  MOVLB  0
389C:  CALL   1320
....................                lcd_gotoxy(0,1);
38A0:  CLRF   51
38A2:  MOVLW  01
38A4:  MOVWF  52
38A6:  CALL   12BE
....................                printf(lcd_putc,"1>555 2>LM224");
38AA:  MOVLW  30
38AC:  MOVWF  FF6
38AE:  MOVLW  0B
38B0:  MOVWF  FF7
38B2:  CALL   1362
....................                lcd_gotoxy(0,2);
38B6:  CLRF   51
38B8:  MOVLW  02
38BA:  MOVWF  52
38BC:  CALL   12BE
....................                printf(lcd_putc,"4>741 3>Next");
38C0:  MOVLW  3E
38C2:  MOVWF  FF6
38C4:  MOVLW  0B
38C6:  MOVWF  FF7
38C8:  CALL   1362
....................                delay_ms(200);
38CC:  MOVLW  C8
38CE:  MOVWF  41
38D0:  CALL   1382
....................                while(1){
....................                   if(Boton()==1){
38D4:  CALL   13A8
38D8:  DECFSZ 01,W
38DA:  BRA    3B10
....................                      reiniciar();
38DC:  CALL   12B8
....................                      set_tris_b(0x04);  // RB2 como entrada (0b11111011), otros pines segn necesidad
38E0:  MOVLW  04
38E2:  MOVWF  F93
....................                      output_b(0x01); //GND y VCC
38E4:  MOVLW  01
38E6:  MOVWF  F8A
....................                      bandera_prueba_555 = 1;
38E8:  BSF    2B.0
....................                      CLEAR_INTERRUPT(INT_RTCC);
38EA:  BCF    FF2.2
....................                      SET_TIMER0(valor_recarga);
38EC:  MOVFF  24,FD7
38F0:  MOVFF  23,FD6
38F4:  NOP   
....................                      value = get_timer0();
38F6:  MOVF   FD6,W
38F8:  MOVWF  2C
38FA:  MOVFF  FD7,2D
38FE:  CLRF   2E
3900:  CLRF   2F
....................                      ENABLE_INTERRUPTS(INT_RTCC);
3902:  BSF    FF2.5
....................                      ENABLE_INTERRUPTS(INT_EXT2);  // Habilita las interrupciones externas
3904:  BSF    FF0.4
....................                      printf(lcd_putc,"\f"); //Limpiar la pantalla
3906:  MOVLW  0C
3908:  MOVWF  50
390A:  CALL   1320
....................                      lcd_gotoxy(0,1);
390E:  CLRF   51
3910:  MOVLW  01
3912:  MOVWF  52
3914:  CALL   12BE
....................                      printf(lcd_putc,"555 Testing..."); //  escribir eso
3918:  MOVLW  4C
391A:  MOVWF  FF6
391C:  MOVLW  0B
391E:  MOVWF  FF7
3920:  CALL   1362
....................                      lcd_gotoxy(0,2);
3924:  CLRF   51
3926:  MOVLW  02
3928:  MOVWF  52
392A:  CALL   12BE
....................                      printf(lcd_putc,"2>Volver");
392E:  MOVLW  5C
3930:  MOVWF  FF6
3932:  MOVLW  0B
3934:  MOVWF  FF7
3936:  CALL   1362
....................                      while(bandera_prueba_555 == 1) {
393A:  BTFSS  2B.0
393C:  BRA    39DC
....................                         if (Boton() == 2) {                        
393E:  CALL   13A8
3942:  MOVF   01,W
3944:  SUBLW  02
3946:  BNZ   397E
....................                            reiniciar();
3948:  CALL   12B8
....................                            printf(lcd_putc,"\f"); //Limpiar la pantalla
394C:  MOVLW  0C
394E:  MOVWF  50
3950:  CALL   1320
....................                            lcd_gotoxy(0,2);
3954:  CLRF   51
3956:  MOVLW  02
3958:  MOVWF  52
395A:  CALL   12BE
....................                            printf(lcd_putc,"Regresando..");
395E:  MOVLW  66
3960:  MOVWF  FF6
3962:  MOVLW  0B
3964:  MOVWF  FF7
3966:  CALL   1362
....................                            delay_ms(1000);
396A:  MOVLW  04
396C:  MOVWF  40
396E:  MOVLW  FA
3970:  MOVWF  41
3972:  CALL   1382
3976:  DECFSZ 40,F
3978:  BRA    396E
....................                            pulsos_555 = 0;
397A:  CLRF   2A
....................                            goto MENUBOTON3;
397C:  BRA    3896
....................                         }
....................                         // Mostrar tiempo transcurrido en la pantalla 
....................                         lcd_gotoxy(0, 1); 
397E:  CLRF   51
3980:  MOVLW  01
3982:  MOVWF  52
3984:  CALL   12BE
....................                         printf(lcd_putc, "Tiempo: %lu", 65536 - get_timer0()); 
3988:  MOVF   FD6,W
398A:  MOVFF  FD7,03
398E:  XORLW  FF
3990:  ADDLW  01
3992:  MOVWF  40
3994:  MOVLW  00
3996:  SUBFWB FD7,W
3998:  MOVWF  41
399A:  MOVLW  01
399C:  BTFSS  FD8.0
399E:  DECF   FE8,F
39A0:  MOVWF  42
39A2:  MOVLW  00
39A4:  BTFSS  FD8.0
39A6:  DECF   FE8,F
39A8:  MOVWF  43
39AA:  MOVLW  74
39AC:  MOVWF  FF6
39AE:  MOVLW  0B
39B0:  MOVWF  FF7
39B2:  MOVLW  08
39B4:  MOVWF  44
39B6:  CALL   13DC
39BA:  MOVLW  41
39BC:  MOVWF  FE9
39BE:  MOVFF  43,47
39C2:  MOVFF  42,46
39C6:  MOVFF  41,45
39CA:  MOVFF  40,44
39CE:  GOTO   1926
....................                         delay_ms(100);
39D2:  MOVLW  64
39D4:  MOVWF  41
39D6:  CALL   1382
39DA:  BRA    393A
....................                      }
....................                      
....................                      if (bandera_prueba_555 == 0) {
39DC:  BTFSC  2B.0
39DE:  BRA    3B10
....................                         if (bandera_estado_555 == 0) {
39E0:  BTFSC  2B.1
39E2:  BRA    3A78
....................                            printf(lcd_putc,"\f"); //Limpiar la pantalla
39E4:  MOVLW  0C
39E6:  MOVWF  50
39E8:  CALL   1320
....................                            lcd_gotoxy(0,1);
39EC:  CLRF   51
39EE:  MOVLW  01
39F0:  MOVWF  52
39F2:  CALL   12BE
....................                            printf(lcd_putc,"Malo %i", pulsos_555); //  escribir eso
39F6:  MOVLW  80
39F8:  MOVWF  FF6
39FA:  MOVLW  0B
39FC:  MOVWF  FF7
39FE:  MOVLW  05
3A00:  MOVWF  44
3A02:  CALL   13DC
3A06:  MOVFF  2A,40
3A0A:  MOVLW  18
3A0C:  MOVWF  41
3A0E:  CALL   1422
....................                            lcd_gotoxy(0,2);
3A12:  CLRF   51
3A14:  MOVLW  02
3A16:  MOVWF  52
3A18:  CALL   12BE
....................                            output_b(0x00); //GND y VCC
3A1C:  CLRF   F8A
....................                            printf(lcd_putc,"2>Volver");
3A1E:  MOVLW  88
3A20:  MOVWF  FF6
3A22:  MOVLW  0B
3A24:  MOVWF  FF7
3A26:  CALL   1362
....................                            while(1) {
....................                               if(Boton() == 2) {
3A2A:  CALL   13A8
3A2E:  MOVF   01,W
3A30:  SUBLW  02
3A32:  BNZ   3A76
....................                                  bandera_estado_555 == 1;
....................                                  CLEAR_INTERRUPT(INT_RTCC);
3A34:  BCF    FF2.2
....................                                  set_timer0(valor_recarga);
3A36:  MOVFF  24,FD7
3A3A:  MOVFF  23,FD6
3A3E:  NOP   
....................                                  reiniciar();
3A40:  CALL   12B8
....................                                  printf(lcd_putc,"\f"); //Limpiar la pantalla
3A44:  MOVLW  0C
3A46:  MOVWF  50
3A48:  CALL   1320
....................                                  lcd_gotoxy(0,2);
3A4C:  CLRF   51
3A4E:  MOVLW  02
3A50:  MOVWF  52
3A52:  CALL   12BE
....................                                  printf(lcd_putc,"Regresando..");
3A56:  MOVLW  92
3A58:  MOVWF  FF6
3A5A:  MOVLW  0B
3A5C:  MOVWF  FF7
3A5E:  CALL   1362
....................                                  delay_ms(1000);
3A62:  MOVLW  04
3A64:  MOVWF  40
3A66:  MOVLW  FA
3A68:  MOVWF  41
3A6A:  CALL   1382
3A6E:  DECFSZ 40,F
3A70:  BRA    3A66
....................                                  pulsos_555 = 0;
3A72:  CLRF   2A
....................                                  goto MENUBOTON3;
3A74:  BRA    3896
....................                               }
3A76:  BRA    3A2A
....................                            }
....................                         }
....................                         if (bandera_estado_555 == 1) {
3A78:  BTFSS  2B.1
3A7A:  BRA    3B10
....................                            printf(lcd_putc,"\f"); //Limpiar la pantalla
3A7C:  MOVLW  0C
3A7E:  MOVWF  50
3A80:  CALL   1320
....................                            lcd_gotoxy(0,1);
3A84:  CLRF   51
3A86:  MOVLW  01
3A88:  MOVWF  52
3A8A:  CALL   12BE
....................                            printf(lcd_putc,"Bueno %i", pulsos_555); //  escribir eso
3A8E:  MOVLW  A0
3A90:  MOVWF  FF6
3A92:  MOVLW  0B
3A94:  MOVWF  FF7
3A96:  MOVLW  06
3A98:  MOVWF  44
3A9A:  CALL   13DC
3A9E:  MOVFF  2A,40
3AA2:  MOVLW  18
3AA4:  MOVWF  41
3AA6:  CALL   1422
....................                            lcd_gotoxy(0,2);
3AAA:  CLRF   51
3AAC:  MOVLW  02
3AAE:  MOVWF  52
3AB0:  CALL   12BE
....................                            output_b(0x00); //GND y VCC
3AB4:  CLRF   F8A
....................                            printf(lcd_putc,"2>Volver");
3AB6:  MOVLW  AA
3AB8:  MOVWF  FF6
3ABA:  MOVLW  0B
3ABC:  MOVWF  FF7
3ABE:  CALL   1362
....................                            while(1) {
....................                               if(Boton() == 2) {
3AC2:  CALL   13A8
3AC6:  MOVF   01,W
3AC8:  SUBLW  02
3ACA:  BNZ   3B0E
....................                                  reiniciar();
3ACC:  CALL   12B8
....................                                  bandera_estado_555 == 1;
....................                                  pulsos_555 = 0;
3AD0:  CLRF   2A
....................                                  CLEAR_INTERRUPT(INT_RTCC);
3AD2:  BCF    FF2.2
....................                                  set_timer0(valor_recarga);
3AD4:  MOVFF  24,FD7
3AD8:  MOVFF  23,FD6
3ADC:  NOP   
....................                                  printf(lcd_putc,"\f"); //Limpiar la pantalla
3ADE:  MOVLW  0C
3AE0:  MOVWF  50
3AE2:  CALL   1320
....................                                  lcd_gotoxy(0,2);
3AE6:  CLRF   51
3AE8:  MOVLW  02
3AEA:  MOVWF  52
3AEC:  CALL   12BE
....................                                  printf(lcd_putc,"Regresando..");
3AF0:  MOVLW  B4
3AF2:  MOVWF  FF6
3AF4:  MOVLW  0B
3AF6:  MOVWF  FF7
3AF8:  CALL   1362
....................                                  delay_ms(1000);
3AFC:  MOVLW  04
3AFE:  MOVWF  40
3B00:  MOVLW  FA
3B02:  MOVWF  41
3B04:  CALL   1382
3B08:  DECFSZ 40,F
3B0A:  BRA    3B00
....................                                  goto MENUBOTON3;
3B0C:  BRA    3896
....................                               }
3B0E:  BRA    3AC2
....................                            }
....................                         }
....................                      }
....................                   }
....................                   if(Boton()==2){
3B10:  CALL   13A8
3B14:  MOVF   01,W
3B16:  SUBLW  02
3B18:  BTFSS  FD8.2
3B1A:  BRA    3D3A
....................                       SetearPuertoslm224();
3B1C:  CALL   19DC
....................                       printf(lcd_putc,"\f"); //Limpiar la pantalla
3B20:  MOVLW  0C
3B22:  MOVWF  50
3B24:  CALL   1320
....................                       lcd_gotoxy(0,1);
3B28:  CLRF   51
3B2A:  MOVLW  01
3B2C:  MOVWF  52
3B2E:  CALL   12BE
....................                       printf(lcd_putc,"LM224 Testing..."); //  escribir eso
3B32:  MOVLW  C2
3B34:  MOVWF  FF6
3B36:  MOVLW  0B
3B38:  MOVWF  FF7
3B3A:  CALL   1362
....................                       lcd_gotoxy(0,2);
3B3E:  CLRF   51
3B40:  MOVLW  02
3B42:  MOVWF  52
3B44:  CALL   12BE
....................                       printf(lcd_putc,"2>Volver");
3B48:  MOVLW  D4
3B4A:  MOVWF  FF6
3B4C:  MOVLW  0B
3B4E:  MOVWF  FF7
3B50:  CALL   1362
....................                       delay_ms(500);
3B54:  MOVLW  02
3B56:  MOVWF  40
3B58:  MOVLW  FA
3B5A:  MOVWF  41
3B5C:  CALL   1382
3B60:  DECFSZ 40,F
3B62:  BRA    3B58
....................                       while(1){
....................                         if(input(PIN_C1)==1){
3B64:  BTFSS  F82.1
3B66:  BRA    3BB0
....................                           printf(lcd_putc,"\f");
3B68:  MOVLW  0C
3B6A:  MOVWF  50
3B6C:  CALL   1320
....................                           lcd_gotoxy(0,1);
3B70:  CLRF   51
3B72:  MOVLW  01
3B74:  MOVWF  52
3B76:  CALL   12BE
....................                           printf(lcd_putc,"AmpOp-1 Bueno!"); //  escribir eso
3B7A:  MOVLW  DE
3B7C:  MOVWF  FF6
3B7E:  MOVLW  0B
3B80:  MOVWF  FF7
3B82:  CALL   1362
....................                           lcd_gotoxy(0,2);
3B86:  CLRF   51
3B88:  MOVLW  02
3B8A:  MOVWF  52
3B8C:  CALL   12BE
....................                           printf(lcd_putc,"LM224 Testing...");
3B90:  MOVLW  EE
3B92:  MOVWF  FF6
3B94:  MOVLW  0B
3B96:  MOVWF  FF7
3B98:  CALL   1362
....................                           delay_ms(500);
3B9C:  MOVLW  02
3B9E:  MOVWF  40
3BA0:  MOVLW  FA
3BA2:  MOVWF  41
3BA4:  CALL   1382
3BA8:  DECFSZ 40,F
3BAA:  BRA    3BA0
....................                           opambuenos = opambuenos + 1;
3BAC:  MOVLW  01
3BAE:  ADDWF  30,F
....................                         } 
....................                         if(input(PIN_C2)==1){
3BB0:  BTFSS  F82.2
3BB2:  BRA    3BFC
....................                           printf(lcd_putc,"\f");
3BB4:  MOVLW  0C
3BB6:  MOVWF  50
3BB8:  CALL   1320
....................                           lcd_gotoxy(0,1);
3BBC:  CLRF   51
3BBE:  MOVLW  01
3BC0:  MOVWF  52
3BC2:  CALL   12BE
....................                           printf(lcd_putc,"AmpOp-2 Bueno!"); //  escribir eso
3BC6:  MOVLW  00
3BC8:  MOVWF  FF6
3BCA:  MOVLW  0C
3BCC:  MOVWF  FF7
3BCE:  CALL   1362
....................                           lcd_gotoxy(0,2);
3BD2:  CLRF   51
3BD4:  MOVLW  02
3BD6:  MOVWF  52
3BD8:  CALL   12BE
....................                           printf(lcd_putc,"LM224 Testing...");
3BDC:  MOVLW  10
3BDE:  MOVWF  FF6
3BE0:  MOVLW  0C
3BE2:  MOVWF  FF7
3BE4:  CALL   1362
....................                           delay_ms(500);
3BE8:  MOVLW  02
3BEA:  MOVWF  40
3BEC:  MOVLW  FA
3BEE:  MOVWF  41
3BF0:  CALL   1382
3BF4:  DECFSZ 40,F
3BF6:  BRA    3BEC
....................                           opambuenos = opambuenos + 1;
3BF8:  MOVLW  01
3BFA:  ADDWF  30,F
....................                         }
....................                         if(input(PIN_B3)==1){
3BFC:  BTFSS  F81.3
3BFE:  BRA    3C48
....................                           printf(lcd_putc,"\f");
3C00:  MOVLW  0C
3C02:  MOVWF  50
3C04:  CALL   1320
....................                           lcd_gotoxy(0,1);
3C08:  CLRF   51
3C0A:  MOVLW  01
3C0C:  MOVWF  52
3C0E:  CALL   12BE
....................                           printf(lcd_putc,"AmpOp-3 Bueno!"); //  escribir eso
3C12:  MOVLW  22
3C14:  MOVWF  FF6
3C16:  MOVLW  0C
3C18:  MOVWF  FF7
3C1A:  CALL   1362
....................                           lcd_gotoxy(0,2);
3C1E:  CLRF   51
3C20:  MOVLW  02
3C22:  MOVWF  52
3C24:  CALL   12BE
....................                           printf(lcd_putc,"LM224 Testing...");
3C28:  MOVLW  32
3C2A:  MOVWF  FF6
3C2C:  MOVLW  0C
3C2E:  MOVWF  FF7
3C30:  CALL   1362
....................                           delay_ms(500);
3C34:  MOVLW  02
3C36:  MOVWF  40
3C38:  MOVLW  FA
3C3A:  MOVWF  41
3C3C:  CALL   1382
3C40:  DECFSZ 40,F
3C42:  BRA    3C38
....................                           opambuenos = opambuenos + 1;
3C44:  MOVLW  01
3C46:  ADDWF  30,F
....................                         }
....................                         if(input(PIN_B4)==1){
3C48:  BTFSS  F81.4
3C4A:  BRA    3C94
....................                           printf(lcd_putc,"\f");
3C4C:  MOVLW  0C
3C4E:  MOVWF  50
3C50:  CALL   1320
....................                           lcd_gotoxy(0,1);
3C54:  CLRF   51
3C56:  MOVLW  01
3C58:  MOVWF  52
3C5A:  CALL   12BE
....................                           printf(lcd_putc,"AmpOp-4 Bueno!"); //  escribir eso
3C5E:  MOVLW  44
3C60:  MOVWF  FF6
3C62:  MOVLW  0C
3C64:  MOVWF  FF7
3C66:  CALL   1362
....................                           lcd_gotoxy(0,2);
3C6A:  CLRF   51
3C6C:  MOVLW  02
3C6E:  MOVWF  52
3C70:  CALL   12BE
....................                           printf(lcd_putc,"LM224 Testing...");
3C74:  MOVLW  54
3C76:  MOVWF  FF6
3C78:  MOVLW  0C
3C7A:  MOVWF  FF7
3C7C:  CALL   1362
....................                           delay_ms(500);
3C80:  MOVLW  02
3C82:  MOVWF  40
3C84:  MOVLW  FA
3C86:  MOVWF  41
3C88:  CALL   1382
3C8C:  DECFSZ 40,F
3C8E:  BRA    3C84
....................                           opambuenos = opambuenos + 1;
3C90:  MOVLW  01
3C92:  ADDWF  30,F
....................                         }
....................                         if(opambuenos>=1){
3C94:  MOVF   30,W
3C96:  SUBLW  00
3C98:  BC    3CF8
....................                           reiniciar();
3C9A:  CALL   12B8
....................                           output_c(0x00); // Colocar puerto D 0101 0010
3C9E:  CLRF   F8B
....................                           printf(lcd_putc,"\f"); //Limpiar la pantalla
3CA0:  MOVLW  0C
3CA2:  MOVWF  50
3CA4:  CALL   1320
....................                           lcd_gotoxy(0,1);
3CA8:  CLRF   51
3CAA:  MOVLW  01
3CAC:  MOVWF  52
3CAE:  CALL   12BE
....................                           printf(lcd_putc,"Buenos %i", opambuenos);
3CB2:  MOVLW  66
3CB4:  MOVWF  FF6
3CB6:  MOVLW  0C
3CB8:  MOVWF  FF7
3CBA:  MOVLW  07
3CBC:  MOVWF  44
3CBE:  CALL   13DC
3CC2:  MOVFF  30,40
3CC6:  MOVLW  18
3CC8:  MOVWF  41
3CCA:  CALL   1422
....................                           lcd_gotoxy(0,2);
3CCE:  CLRF   51
3CD0:  MOVLW  02
3CD2:  MOVWF  52
3CD4:  CALL   12BE
....................                           printf(lcd_putc,"Regresando..");
3CD8:  MOVLW  70
3CDA:  MOVWF  FF6
3CDC:  MOVLW  0C
3CDE:  MOVWF  FF7
3CE0:  CALL   1362
....................                           delay_ms(1000);
3CE4:  MOVLW  04
3CE6:  MOVWF  40
3CE8:  MOVLW  FA
3CEA:  MOVWF  41
3CEC:  CALL   1382
3CF0:  DECFSZ 40,F
3CF2:  BRA    3CE8
....................                           opambuenos = 0;
3CF4:  CLRF   30
....................                           goto MENUBOTON3;
3CF6:  BRA    3896
....................                         }
....................                         if(Boton()==2){
3CF8:  CALL   13A8
3CFC:  MOVF   01,W
3CFE:  SUBLW  02
3D00:  BNZ   3D38
....................                          reiniciar();
3D02:  CALL   12B8
....................                          opambuenos = 0;
3D06:  CLRF   30
....................                          printf(lcd_putc,"\f"); //Limpiar la pantalla
3D08:  MOVLW  0C
3D0A:  MOVWF  50
3D0C:  CALL   1320
....................                          lcd_gotoxy(0,2);
3D10:  CLRF   51
3D12:  MOVLW  02
3D14:  MOVWF  52
3D16:  CALL   12BE
....................                          printf(lcd_putc,"Regresando...");
3D1A:  MOVLW  7E
3D1C:  MOVWF  FF6
3D1E:  MOVLW  0C
3D20:  MOVWF  FF7
3D22:  CALL   1362
....................                          delay_ms(500);
3D26:  MOVLW  02
3D28:  MOVWF  40
3D2A:  MOVLW  FA
3D2C:  MOVWF  41
3D2E:  CALL   1382
3D32:  DECFSZ 40,F
3D34:  BRA    3D2A
....................                          goto MENUBOTON3;
3D36:  BRA    3896
....................                         }
3D38:  BRA    3B64
....................                       } 
....................                   }
....................                   if(Boton()==4){
3D3A:  CALL   13A8
3D3E:  MOVF   01,W
3D40:  SUBLW  04
3D42:  BNZ   3E1E
....................                         reiniciar();
3D44:  CALL   12B8
....................                         SetearPuertos741();
3D48:  CALL   15AE
....................                         printf(lcd_putc,"\f"); //Limpiar la pantalla
3D4C:  MOVLW  0C
3D4E:  MOVWF  50
3D50:  CALL   1320
....................                         lcd_gotoxy(0,1);
3D54:  CLRF   51
3D56:  MOVLW  01
3D58:  MOVWF  52
3D5A:  CALL   12BE
....................                         printf(lcd_putc,"741 Testing..."); //  escribir eso
3D5E:  MOVLW  8C
3D60:  MOVWF  FF6
3D62:  MOVLW  0C
3D64:  MOVWF  FF7
3D66:  CALL   1362
....................                         lcd_gotoxy(0,2);
3D6A:  CLRF   51
3D6C:  MOVLW  02
3D6E:  MOVWF  52
3D70:  CALL   12BE
....................                         printf(lcd_putc,"2>Volver");
3D74:  MOVLW  9C
3D76:  MOVWF  FF6
3D78:  MOVLW  0C
3D7A:  MOVWF  FF7
3D7C:  CALL   1362
....................                         delay_ms(1000);
3D80:  MOVLW  04
3D82:  MOVWF  40
3D84:  MOVLW  FA
3D86:  MOVWF  41
3D88:  CALL   1382
3D8C:  DECFSZ 40,F
3D8E:  BRA    3D84
....................                         while(1){
....................                            if(input(PIN_B5)==1){
3D90:  BTFSS  F81.5
3D92:  BRA    3DDE
....................                                     reiniciar();
3D94:  CALL   12B8
....................                                     printf(lcd_putc,"\f"); //Limpiar la pantalla
3D98:  MOVLW  0C
3D9A:  MOVWF  50
3D9C:  CALL   1320
....................                                     lcd_gotoxy(0,1);
3DA0:  CLRF   51
3DA2:  MOVLW  01
3DA4:  MOVWF  52
3DA6:  CALL   12BE
....................                                     printf(lcd_putc,"AmpOp Bueno!"); //  escribir eso
3DAA:  MOVLW  A6
3DAC:  MOVWF  FF6
3DAE:  MOVLW  0C
3DB0:  MOVWF  FF7
3DB2:  CALL   1362
....................                                     lcd_gotoxy(0,2);
3DB6:  CLRF   51
3DB8:  MOVLW  02
3DBA:  MOVWF  52
3DBC:  CALL   12BE
....................                                     printf(lcd_putc,"Regresando...");
3DC0:  MOVLW  B4
3DC2:  MOVWF  FF6
3DC4:  MOVLW  0C
3DC6:  MOVWF  FF7
3DC8:  CALL   1362
....................                                     delay_ms(500);
3DCC:  MOVLW  02
3DCE:  MOVWF  40
3DD0:  MOVLW  FA
3DD2:  MOVWF  41
3DD4:  CALL   1382
3DD8:  DECFSZ 40,F
3DDA:  BRA    3DD0
....................                                     goto MENUBOTON3;
3DDC:  BRA    3896
....................                            }
....................                            if(Boton()==2){
3DDE:  CALL   13A8
3DE2:  MOVF   01,W
3DE4:  SUBLW  02
3DE6:  BNZ   3E1C
....................                              reiniciar();
3DE8:  CALL   12B8
....................                              printf(lcd_putc,"\f"); //Limpiar la pantalla
3DEC:  MOVLW  0C
3DEE:  MOVWF  50
3DF0:  CALL   1320
....................                              lcd_gotoxy(0,2);
3DF4:  CLRF   51
3DF6:  MOVLW  02
3DF8:  MOVWF  52
3DFA:  CALL   12BE
....................                              printf(lcd_putc,"Regresando...");
3DFE:  MOVLW  C2
3E00:  MOVWF  FF6
3E02:  MOVLW  0C
3E04:  MOVWF  FF7
3E06:  CALL   1362
....................                              delay_ms(500);
3E0A:  MOVLW  02
3E0C:  MOVWF  40
3E0E:  MOVLW  FA
3E10:  MOVWF  41
3E12:  CALL   1382
3E16:  DECFSZ 40,F
3E18:  BRA    3E0E
....................                              goto MENUBOTON3;
3E1A:  BRA    3896
....................                            }
3E1C:  BRA    3D90
....................                         }   
....................                   }
....................                   if(Boton()==3){
3E1E:  CALL   13A8
3E22:  MOVF   01,W
3E24:  SUBLW  03
3E26:  BTFSS  FD8.2
3E28:  GOTO   498C
.................... MENULM324:                  
....................                      printf(lcd_putc,"\f");
3E2C:  MOVLW  0C
3E2E:  MOVWF  50
3E30:  MOVLB  0
3E32:  CALL   1320
....................                      lcd_gotoxy(0,1);
3E36:  CLRF   51
3E38:  MOVLW  01
3E3A:  MOVWF  52
3E3C:  CALL   12BE
....................                      printf(lcd_putc,"1>LM358 2>LM348");
3E40:  MOVLW  D0
3E42:  MOVWF  FF6
3E44:  MOVLW  0C
3E46:  MOVWF  FF7
3E48:  CALL   1362
....................                      lcd_gotoxy(0,2);
3E4C:  CLRF   51
3E4E:  MOVLW  02
3E50:  MOVWF  52
3E52:  CALL   12BE
....................                      printf(lcd_putc,"4>LM324 3>Next");
3E56:  MOVLW  E0
3E58:  MOVWF  FF6
3E5A:  MOVLW  0C
3E5C:  MOVWF  FF7
3E5E:  CALL   1362
....................                      delay_ms(200);
3E62:  MOVLW  C8
3E64:  MOVWF  41
3E66:  CALL   1382
....................                      while(1){
....................                      if(Boton()==1){
3E6A:  CALL   13A8
3E6E:  DECFSZ 01,W
3E70:  BRA    3FF6
....................                          SetearPuertos358();
3E72:  GOTO   19F6
....................                          printf(lcd_putc,"\f"); //Limpiar la pantalla
3E76:  MOVLW  0C
3E78:  MOVWF  50
3E7A:  CALL   1320
....................                          lcd_gotoxy(0,1);
3E7E:  CLRF   51
3E80:  MOVLW  01
3E82:  MOVWF  52
3E84:  CALL   12BE
....................                          printf(lcd_putc,"LM358 Testing..."); //  escribir eso
3E88:  MOVLW  F0
3E8A:  MOVWF  FF6
3E8C:  MOVLW  0C
3E8E:  MOVWF  FF7
3E90:  CALL   1362
....................                          lcd_gotoxy(0,2);
3E94:  CLRF   51
3E96:  MOVLW  02
3E98:  MOVWF  52
3E9A:  CALL   12BE
....................                          printf(lcd_putc,"2>Volver");
3E9E:  MOVLW  02
3EA0:  MOVWF  FF6
3EA2:  MOVLW  0D
3EA4:  MOVWF  FF7
3EA6:  CALL   1362
....................                          delay_ms(1000);
3EAA:  MOVLW  04
3EAC:  MOVWF  40
3EAE:  MOVLW  FA
3EB0:  MOVWF  41
3EB2:  CALL   1382
3EB6:  DECFSZ 40,F
3EB8:  BRA    3EAE
....................                          while(1){
....................                             if(input(PIN_B0)==1){
3EBA:  BTFSS  F81.0
3EBC:  BRA    3F06
....................                                  printf(lcd_putc,"\f");
3EBE:  MOVLW  0C
3EC0:  MOVWF  50
3EC2:  CALL   1320
....................                                  lcd_gotoxy(0,1);
3EC6:  CLRF   51
3EC8:  MOVLW  01
3ECA:  MOVWF  52
3ECC:  CALL   12BE
....................                                  printf(lcd_putc,"AmpOp-1 Bueno!"); //  escribir eso
3ED0:  MOVLW  0C
3ED2:  MOVWF  FF6
3ED4:  MOVLW  0D
3ED6:  MOVWF  FF7
3ED8:  CALL   1362
....................                                  lcd_gotoxy(0,2);
3EDC:  CLRF   51
3EDE:  MOVLW  02
3EE0:  MOVWF  52
3EE2:  CALL   12BE
....................                                  printf(lcd_putc,"LM358 Testing...");
3EE6:  MOVLW  1C
3EE8:  MOVWF  FF6
3EEA:  MOVLW  0D
3EEC:  MOVWF  FF7
3EEE:  CALL   1362
....................                                  delay_ms(500);
3EF2:  MOVLW  02
3EF4:  MOVWF  40
3EF6:  MOVLW  FA
3EF8:  MOVWF  41
3EFA:  CALL   1382
3EFE:  DECFSZ 40,F
3F00:  BRA    3EF6
....................                                  opambuenos = opambuenos + 1;
3F02:  MOVLW  01
3F04:  ADDWF  30,F
....................                             }
....................                             if(input(PIN_B4)==1){
3F06:  BTFSS  F81.4
3F08:  BRA    3F52
....................                                  printf(lcd_putc,"\f");
3F0A:  MOVLW  0C
3F0C:  MOVWF  50
3F0E:  CALL   1320
....................                                  lcd_gotoxy(0,1);
3F12:  CLRF   51
3F14:  MOVLW  01
3F16:  MOVWF  52
3F18:  CALL   12BE
....................                                  printf(lcd_putc,"AmpOp-2 Bueno!"); //  escribir eso
3F1C:  MOVLW  2E
3F1E:  MOVWF  FF6
3F20:  MOVLW  0D
3F22:  MOVWF  FF7
3F24:  CALL   1362
....................                                  lcd_gotoxy(0,2);
3F28:  CLRF   51
3F2A:  MOVLW  02
3F2C:  MOVWF  52
3F2E:  CALL   12BE
....................                                  printf(lcd_putc,"LM358 Testing...");
3F32:  MOVLW  3E
3F34:  MOVWF  FF6
3F36:  MOVLW  0D
3F38:  MOVWF  FF7
3F3A:  CALL   1362
....................                                  delay_ms(500);
3F3E:  MOVLW  02
3F40:  MOVWF  40
3F42:  MOVLW  FA
3F44:  MOVWF  41
3F46:  CALL   1382
3F4A:  DECFSZ 40,F
3F4C:  BRA    3F42
....................                                  opambuenos = opambuenos + 1;
3F4E:  MOVLW  01
3F50:  ADDWF  30,F
....................                             }
....................                             if(opambuenos>=1){
3F52:  MOVF   30,W
3F54:  SUBLW  00
3F56:  BC    3FB4
....................                                  reiniciar();
3F58:  CALL   12B8
....................                                  printf(lcd_putc,"\f"); //Limpiar la pantalla
3F5C:  MOVLW  0C
3F5E:  MOVWF  50
3F60:  CALL   1320
....................                                  lcd_gotoxy(0,1);
3F64:  CLRF   51
3F66:  MOVLW  01
3F68:  MOVWF  52
3F6A:  CALL   12BE
....................                                  printf(lcd_putc,"Buenos %i", opambuenos);
3F6E:  MOVLW  50
3F70:  MOVWF  FF6
3F72:  MOVLW  0D
3F74:  MOVWF  FF7
3F76:  MOVLW  07
3F78:  MOVWF  44
3F7A:  CALL   13DC
3F7E:  MOVFF  30,40
3F82:  MOVLW  18
3F84:  MOVWF  41
3F86:  CALL   1422
....................                                  lcd_gotoxy(0,2);
3F8A:  CLRF   51
3F8C:  MOVLW  02
3F8E:  MOVWF  52
3F90:  CALL   12BE
....................                                  printf(lcd_putc,"Regresando..");
3F94:  MOVLW  5A
3F96:  MOVWF  FF6
3F98:  MOVLW  0D
3F9A:  MOVWF  FF7
3F9C:  CALL   1362
....................                                  delay_ms(1000);
3FA0:  MOVLW  04
3FA2:  MOVWF  40
3FA4:  MOVLW  FA
3FA6:  MOVWF  41
3FA8:  CALL   1382
3FAC:  DECFSZ 40,F
3FAE:  BRA    3FA4
....................                                  opambuenos = 0;
3FB0:  CLRF   30
....................                                  goto MENULM324;
3FB2:  BRA    3E2C
....................                             }
....................                             if(Boton()==2){
3FB4:  CALL   13A8
3FB8:  MOVF   01,W
3FBA:  SUBLW  02
3FBC:  BNZ   3FF4
....................                                 reiniciar();
3FBE:  CALL   12B8
....................                                 opambuenos = 0;
3FC2:  CLRF   30
....................                                 printf(lcd_putc,"\f"); //Limpiar la pantalla
3FC4:  MOVLW  0C
3FC6:  MOVWF  50
3FC8:  CALL   1320
....................                                 lcd_gotoxy(0,2);
3FCC:  CLRF   51
3FCE:  MOVLW  02
3FD0:  MOVWF  52
3FD2:  CALL   12BE
....................                                 printf(lcd_putc,"Regresando...");
3FD6:  MOVLW  68
3FD8:  MOVWF  FF6
3FDA:  MOVLW  0D
3FDC:  MOVWF  FF7
3FDE:  CALL   1362
....................                                 delay_ms(500);
3FE2:  MOVLW  02
3FE4:  MOVWF  40
3FE6:  MOVLW  FA
3FE8:  MOVWF  41
3FEA:  CALL   1382
3FEE:  DECFSZ 40,F
3FF0:  BRA    3FE6
....................                                 goto MENULM324;
3FF2:  BRA    3E2C
....................                             }
3FF4:  BRA    3EBA
....................                         } 
....................                      }
....................                      
....................                      if(Boton()==2){
3FF6:  CALL   13A8
3FFA:  MOVF   01,W
3FFC:  SUBLW  02
3FFE:  BTFSS  FD8.2
4000:  BRA    421E
....................                       SetearPuertoslm224();
4002:  CALL   19DC
....................                       printf(lcd_putc,"\f"); //Limpiar la pantalla
4006:  MOVLW  0C
4008:  MOVWF  50
400A:  CALL   1320
....................                       lcd_gotoxy(0,1);
400E:  CLRF   51
4010:  MOVLW  01
4012:  MOVWF  52
4014:  CALL   12BE
....................                       printf(lcd_putc,"LM348 Testing..."); //  escribir eso
4018:  MOVLW  76
401A:  MOVWF  FF6
401C:  MOVLW  0D
401E:  MOVWF  FF7
4020:  CALL   1362
....................                       lcd_gotoxy(0,2);
4024:  CLRF   51
4026:  MOVLW  02
4028:  MOVWF  52
402A:  CALL   12BE
....................                       printf(lcd_putc,"2>Volver");
402E:  MOVLW  88
4030:  MOVWF  FF6
4032:  MOVLW  0D
4034:  MOVWF  FF7
4036:  CALL   1362
....................                       delay_ms(1000);
403A:  MOVLW  04
403C:  MOVWF  40
403E:  MOVLW  FA
4040:  MOVWF  41
4042:  CALL   1382
4046:  DECFSZ 40,F
4048:  BRA    403E
....................                       while(1){
....................                          if(input(PIN_C1)==1){
404A:  BTFSS  F82.1
404C:  BRA    4096
....................                               printf(lcd_putc,"\f");
404E:  MOVLW  0C
4050:  MOVWF  50
4052:  CALL   1320
....................                               lcd_gotoxy(0,1);
4056:  CLRF   51
4058:  MOVLW  01
405A:  MOVWF  52
405C:  CALL   12BE
....................                               printf(lcd_putc,"AmpOp-1 Bueno!"); //  escribir eso
4060:  MOVLW  92
4062:  MOVWF  FF6
4064:  MOVLW  0D
4066:  MOVWF  FF7
4068:  CALL   1362
....................                               lcd_gotoxy(0,2);
406C:  CLRF   51
406E:  MOVLW  02
4070:  MOVWF  52
4072:  CALL   12BE
....................                               printf(lcd_putc,"LM348 Testing...");
4076:  MOVLW  A2
4078:  MOVWF  FF6
407A:  MOVLW  0D
407C:  MOVWF  FF7
407E:  CALL   1362
....................                               delay_ms(500);
4082:  MOVLW  02
4084:  MOVWF  40
4086:  MOVLW  FA
4088:  MOVWF  41
408A:  CALL   1382
408E:  DECFSZ 40,F
4090:  BRA    4086
....................                               opambuenos = opambuenos + 1;
4092:  MOVLW  01
4094:  ADDWF  30,F
....................                          }
....................                          if(input(PIN_C2)==1){
4096:  BTFSS  F82.2
4098:  BRA    40E2
....................                               printf(lcd_putc,"\f");
409A:  MOVLW  0C
409C:  MOVWF  50
409E:  CALL   1320
....................                               lcd_gotoxy(0,1);
40A2:  CLRF   51
40A4:  MOVLW  01
40A6:  MOVWF  52
40A8:  CALL   12BE
....................                               printf(lcd_putc,"AmpOp-2 Bueno!"); //  escribir eso
40AC:  MOVLW  B4
40AE:  MOVWF  FF6
40B0:  MOVLW  0D
40B2:  MOVWF  FF7
40B4:  CALL   1362
....................                               lcd_gotoxy(0,2);
40B8:  CLRF   51
40BA:  MOVLW  02
40BC:  MOVWF  52
40BE:  CALL   12BE
....................                               printf(lcd_putc,"LM348 Testing...");
40C2:  MOVLW  C4
40C4:  MOVWF  FF6
40C6:  MOVLW  0D
40C8:  MOVWF  FF7
40CA:  CALL   1362
....................                               delay_ms(500);
40CE:  MOVLW  02
40D0:  MOVWF  40
40D2:  MOVLW  FA
40D4:  MOVWF  41
40D6:  CALL   1382
40DA:  DECFSZ 40,F
40DC:  BRA    40D2
....................                               opambuenos = opambuenos + 1;
40DE:  MOVLW  01
40E0:  ADDWF  30,F
....................                          }
....................                          if(input(PIN_B3)==1){
40E2:  BTFSS  F81.3
40E4:  BRA    412E
....................                               printf(lcd_putc,"\f");
40E6:  MOVLW  0C
40E8:  MOVWF  50
40EA:  CALL   1320
....................                               lcd_gotoxy(0,1);
40EE:  CLRF   51
40F0:  MOVLW  01
40F2:  MOVWF  52
40F4:  CALL   12BE
....................                               printf(lcd_putc,"AmpOp-3 Bueno!"); //  escribir eso
40F8:  MOVLW  D6
40FA:  MOVWF  FF6
40FC:  MOVLW  0D
40FE:  MOVWF  FF7
4100:  CALL   1362
....................                               lcd_gotoxy(0,2);
4104:  CLRF   51
4106:  MOVLW  02
4108:  MOVWF  52
410A:  CALL   12BE
....................                               printf(lcd_putc,"LM348 Testing...");
410E:  MOVLW  E6
4110:  MOVWF  FF6
4112:  MOVLW  0D
4114:  MOVWF  FF7
4116:  CALL   1362
....................                               delay_ms(500);
411A:  MOVLW  02
411C:  MOVWF  40
411E:  MOVLW  FA
4120:  MOVWF  41
4122:  CALL   1382
4126:  DECFSZ 40,F
4128:  BRA    411E
....................                               opambuenos = opambuenos + 1;
412A:  MOVLW  01
412C:  ADDWF  30,F
....................                          } 
....................                          if(input(PIN_B4)==1){
412E:  BTFSS  F81.4
4130:  BRA    417A
....................                               printf(lcd_putc,"\f");
4132:  MOVLW  0C
4134:  MOVWF  50
4136:  CALL   1320
....................                               lcd_gotoxy(0,1);
413A:  CLRF   51
413C:  MOVLW  01
413E:  MOVWF  52
4140:  CALL   12BE
....................                               printf(lcd_putc,"AmpOp-4 Bueno!"); //  escribir eso
4144:  MOVLW  F8
4146:  MOVWF  FF6
4148:  MOVLW  0D
414A:  MOVWF  FF7
414C:  CALL   1362
....................                               lcd_gotoxy(0,2);
4150:  CLRF   51
4152:  MOVLW  02
4154:  MOVWF  52
4156:  CALL   12BE
....................                               printf(lcd_putc," LM348 Testing...");
415A:  MOVLW  08
415C:  MOVWF  FF6
415E:  MOVLW  0E
4160:  MOVWF  FF7
4162:  CALL   1362
....................                               delay_ms(500);
4166:  MOVLW  02
4168:  MOVWF  40
416A:  MOVLW  FA
416C:  MOVWF  41
416E:  CALL   1382
4172:  DECFSZ 40,F
4174:  BRA    416A
....................                               opambuenos = opambuenos + 1;
4176:  MOVLW  01
4178:  ADDWF  30,F
....................                          }   
....................                          if(opambuenos>=1){
417A:  MOVF   30,W
417C:  SUBLW  00
417E:  BC    41DC
....................                               reiniciar();
4180:  CALL   12B8
....................                               printf(lcd_putc,"\f"); //Limpiar la pantalla
4184:  MOVLW  0C
4186:  MOVWF  50
4188:  CALL   1320
....................                               lcd_gotoxy(0,1);
418C:  CLRF   51
418E:  MOVLW  01
4190:  MOVWF  52
4192:  CALL   12BE
....................                               printf(lcd_putc,"Buenos %i", opambuenos);
4196:  MOVLW  1A
4198:  MOVWF  FF6
419A:  MOVLW  0E
419C:  MOVWF  FF7
419E:  MOVLW  07
41A0:  MOVWF  44
41A2:  CALL   13DC
41A6:  MOVFF  30,40
41AA:  MOVLW  18
41AC:  MOVWF  41
41AE:  CALL   1422
....................                               lcd_gotoxy(0,2);
41B2:  CLRF   51
41B4:  MOVLW  02
41B6:  MOVWF  52
41B8:  CALL   12BE
....................                               printf(lcd_putc,"Regresando..");
41BC:  MOVLW  24
41BE:  MOVWF  FF6
41C0:  MOVLW  0E
41C2:  MOVWF  FF7
41C4:  CALL   1362
....................                               delay_ms(1000);
41C8:  MOVLW  04
41CA:  MOVWF  40
41CC:  MOVLW  FA
41CE:  MOVWF  41
41D0:  CALL   1382
41D4:  DECFSZ 40,F
41D6:  BRA    41CC
....................                               opambuenos = 0;
41D8:  CLRF   30
....................                               goto MENULM324;
41DA:  BRA    3E2C
....................                          }
....................                          if(Boton()==2){
41DC:  CALL   13A8
41E0:  MOVF   01,W
41E2:  SUBLW  02
41E4:  BNZ   421C
....................                                 reiniciar();
41E6:  CALL   12B8
....................                                 opambuenos = 0;
41EA:  CLRF   30
....................                                 printf(lcd_putc,"\f"); //Limpiar la pantalla
41EC:  MOVLW  0C
41EE:  MOVWF  50
41F0:  CALL   1320
....................                                 lcd_gotoxy(0,2);
41F4:  CLRF   51
41F6:  MOVLW  02
41F8:  MOVWF  52
41FA:  CALL   12BE
....................                                 printf(lcd_putc,"Regresando...");
41FE:  MOVLW  32
4200:  MOVWF  FF6
4202:  MOVLW  0E
4204:  MOVWF  FF7
4206:  CALL   1362
....................                                 delay_ms(500);
420A:  MOVLW  02
420C:  MOVWF  40
420E:  MOVLW  FA
4210:  MOVWF  41
4212:  CALL   1382
4216:  DECFSZ 40,F
4218:  BRA    420E
....................                                 goto MENULM324;
421A:  BRA    3E2C
....................                             }
421C:  BRA    404A
....................                      } 
....................                }
....................                      if(Boton()==4){
421E:  CALL   13A8
4222:  MOVF   01,W
4224:  SUBLW  04
4226:  BTFSS  FD8.2
4228:  BRA    4446
....................                             SetearPuertoslm224();
422A:  CALL   19DC
....................                             printf(lcd_putc,"\f"); //Limpiar la pantalla
422E:  MOVLW  0C
4230:  MOVWF  50
4232:  CALL   1320
....................                             lcd_gotoxy(0,1);
4236:  CLRF   51
4238:  MOVLW  01
423A:  MOVWF  52
423C:  CALL   12BE
....................                             printf(lcd_putc,"LM324 Testing..."); //  escribir eso
4240:  MOVLW  40
4242:  MOVWF  FF6
4244:  MOVLW  0E
4246:  MOVWF  FF7
4248:  CALL   1362
....................                             lcd_gotoxy(0,2);
424C:  CLRF   51
424E:  MOVLW  02
4250:  MOVWF  52
4252:  CALL   12BE
....................                             printf(lcd_putc,"2>Volver");
4256:  MOVLW  52
4258:  MOVWF  FF6
425A:  MOVLW  0E
425C:  MOVWF  FF7
425E:  CALL   1362
....................                             delay_ms(1000);
4262:  MOVLW  04
4264:  MOVWF  40
4266:  MOVLW  FA
4268:  MOVWF  41
426A:  CALL   1382
426E:  DECFSZ 40,F
4270:  BRA    4266
....................                             while(1){
....................                                if(input(PIN_C1)==1){
4272:  BTFSS  F82.1
4274:  BRA    42BE
....................                                     printf(lcd_putc,"\f");
4276:  MOVLW  0C
4278:  MOVWF  50
427A:  CALL   1320
....................                                     lcd_gotoxy(0,1);
427E:  CLRF   51
4280:  MOVLW  01
4282:  MOVWF  52
4284:  CALL   12BE
....................                                     printf(lcd_putc,"AmpOp-1 Bueno!"); //  escribir eso
4288:  MOVLW  5C
428A:  MOVWF  FF6
428C:  MOVLW  0E
428E:  MOVWF  FF7
4290:  CALL   1362
....................                                     lcd_gotoxy(0,2);
4294:  CLRF   51
4296:  MOVLW  02
4298:  MOVWF  52
429A:  CALL   12BE
....................                                     printf(lcd_putc,"LM324 Testing...");
429E:  MOVLW  6C
42A0:  MOVWF  FF6
42A2:  MOVLW  0E
42A4:  MOVWF  FF7
42A6:  CALL   1362
....................                                     delay_ms(500);
42AA:  MOVLW  02
42AC:  MOVWF  40
42AE:  MOVLW  FA
42B0:  MOVWF  41
42B2:  CALL   1382
42B6:  DECFSZ 40,F
42B8:  BRA    42AE
....................                                     opambuenos = opambuenos + 1;
42BA:  MOVLW  01
42BC:  ADDWF  30,F
....................                                     
....................                                }
....................                                if(input(PIN_C2)==1){
42BE:  BTFSS  F82.2
42C0:  BRA    430A
....................                                     printf(lcd_putc,"\f");
42C2:  MOVLW  0C
42C4:  MOVWF  50
42C6:  CALL   1320
....................                                     lcd_gotoxy(0,1);
42CA:  CLRF   51
42CC:  MOVLW  01
42CE:  MOVWF  52
42D0:  CALL   12BE
....................                                     printf(lcd_putc,"AmpOp-2 Bueno!"); //  escribir eso
42D4:  MOVLW  7E
42D6:  MOVWF  FF6
42D8:  MOVLW  0E
42DA:  MOVWF  FF7
42DC:  CALL   1362
....................                                     lcd_gotoxy(0,2);
42E0:  CLRF   51
42E2:  MOVLW  02
42E4:  MOVWF  52
42E6:  CALL   12BE
....................                                     printf(lcd_putc,"LM324 Testing...");
42EA:  MOVLW  8E
42EC:  MOVWF  FF6
42EE:  MOVLW  0E
42F0:  MOVWF  FF7
42F2:  CALL   1362
....................                                     delay_ms(500);
42F6:  MOVLW  02
42F8:  MOVWF  40
42FA:  MOVLW  FA
42FC:  MOVWF  41
42FE:  CALL   1382
4302:  DECFSZ 40,F
4304:  BRA    42FA
....................                                     opambuenos = opambuenos + 1;
4306:  MOVLW  01
4308:  ADDWF  30,F
....................                                }
....................                                if(input(PIN_B3)==1){
430A:  BTFSS  F81.3
430C:  BRA    4356
....................                                     printf(lcd_putc,"\f");
430E:  MOVLW  0C
4310:  MOVWF  50
4312:  CALL   1320
....................                                     lcd_gotoxy(0,1);
4316:  CLRF   51
4318:  MOVLW  01
431A:  MOVWF  52
431C:  CALL   12BE
....................                                     printf(lcd_putc,"AmpOp-3 Bueno!"); //  escribir eso
4320:  MOVLW  A0
4322:  MOVWF  FF6
4324:  MOVLW  0E
4326:  MOVWF  FF7
4328:  CALL   1362
....................                                     lcd_gotoxy(0,2);
432C:  CLRF   51
432E:  MOVLW  02
4330:  MOVWF  52
4332:  CALL   12BE
....................                                     printf(lcd_putc,"LM324 Testing...");
4336:  MOVLW  B0
4338:  MOVWF  FF6
433A:  MOVLW  0E
433C:  MOVWF  FF7
433E:  CALL   1362
....................                                     delay_ms(500);
4342:  MOVLW  02
4344:  MOVWF  40
4346:  MOVLW  FA
4348:  MOVWF  41
434A:  CALL   1382
434E:  DECFSZ 40,F
4350:  BRA    4346
....................                                     opambuenos = opambuenos + 1;
4352:  MOVLW  01
4354:  ADDWF  30,F
....................                                } 
....................                                if(input(PIN_B4)==1){
4356:  BTFSS  F81.4
4358:  BRA    43A2
....................                                     printf(lcd_putc,"\f");
435A:  MOVLW  0C
435C:  MOVWF  50
435E:  CALL   1320
....................                                     lcd_gotoxy(0,1);
4362:  CLRF   51
4364:  MOVLW  01
4366:  MOVWF  52
4368:  CALL   12BE
....................                                     printf(lcd_putc,"AmpOp-4 Bueno!"); //  escribir eso
436C:  MOVLW  C2
436E:  MOVWF  FF6
4370:  MOVLW  0E
4372:  MOVWF  FF7
4374:  CALL   1362
....................                                     lcd_gotoxy(0,2);
4378:  CLRF   51
437A:  MOVLW  02
437C:  MOVWF  52
437E:  CALL   12BE
....................                                     printf(lcd_putc,"LM324 Testing...");
4382:  MOVLW  D2
4384:  MOVWF  FF6
4386:  MOVLW  0E
4388:  MOVWF  FF7
438A:  CALL   1362
....................                                     delay_ms(500);
438E:  MOVLW  02
4390:  MOVWF  40
4392:  MOVLW  FA
4394:  MOVWF  41
4396:  CALL   1382
439A:  DECFSZ 40,F
439C:  BRA    4392
....................                                     opambuenos = opambuenos + 1;
439E:  MOVLW  01
43A0:  ADDWF  30,F
....................                                }   
....................                                if(opambuenos>=1){
43A2:  MOVF   30,W
43A4:  SUBLW  00
43A6:  BC    4404
....................                                     reiniciar();
43A8:  CALL   12B8
....................                                     printf(lcd_putc,"\f"); //Limpiar la pantalla
43AC:  MOVLW  0C
43AE:  MOVWF  50
43B0:  CALL   1320
....................                                     lcd_gotoxy(0,1);
43B4:  CLRF   51
43B6:  MOVLW  01
43B8:  MOVWF  52
43BA:  CALL   12BE
....................                                     printf(lcd_putc,"Buenos %i", opambuenos);
43BE:  MOVLW  E4
43C0:  MOVWF  FF6
43C2:  MOVLW  0E
43C4:  MOVWF  FF7
43C6:  MOVLW  07
43C8:  MOVWF  44
43CA:  CALL   13DC
43CE:  MOVFF  30,40
43D2:  MOVLW  18
43D4:  MOVWF  41
43D6:  CALL   1422
....................                                     lcd_gotoxy(0,2);
43DA:  CLRF   51
43DC:  MOVLW  02
43DE:  MOVWF  52
43E0:  CALL   12BE
....................                                     printf(lcd_putc,"Regresando...");
43E4:  MOVLW  EE
43E6:  MOVWF  FF6
43E8:  MOVLW  0E
43EA:  MOVWF  FF7
43EC:  CALL   1362
....................                                     delay_ms(1000);
43F0:  MOVLW  04
43F2:  MOVWF  40
43F4:  MOVLW  FA
43F6:  MOVWF  41
43F8:  CALL   1382
43FC:  DECFSZ 40,F
43FE:  BRA    43F4
....................                                     opambuenos = 0;
4400:  CLRF   30
....................                                     goto MENULM324;
4402:  BRA    3E2C
....................                                }
....................                                if(Boton()==2){
4404:  CALL   13A8
4408:  MOVF   01,W
440A:  SUBLW  02
440C:  BNZ   4444
....................                                    reiniciar();
440E:  CALL   12B8
....................                                    opambuenos = 0;
4412:  CLRF   30
....................                                    printf(lcd_putc,"\f"); //Limpiar la pantalla
4414:  MOVLW  0C
4416:  MOVWF  50
4418:  CALL   1320
....................                                    lcd_gotoxy(0,2);
441C:  CLRF   51
441E:  MOVLW  02
4420:  MOVWF  52
4422:  CALL   12BE
....................                                    printf(lcd_putc,"Regresando...");
4426:  MOVLW  FC
4428:  MOVWF  FF6
442A:  MOVLW  0E
442C:  MOVWF  FF7
442E:  CALL   1362
....................                                    delay_ms(500);
4432:  MOVLW  02
4434:  MOVWF  40
4436:  MOVLW  FA
4438:  MOVWF  41
443A:  CALL   1382
443E:  DECFSZ 40,F
4440:  BRA    4436
....................                                    goto MENULM324;
4442:  BRA    3E2C
....................                                }
4444:  BRA    4272
....................                            }
....................                      }
....................                      if(Boton()==3){
4446:  CALL   13A8
444A:  MOVF   01,W
444C:  SUBLW  03
444E:  BTFSS  FD8.2
4450:  BRA    4988
.................... MENUTRANSISTORES:                     
....................                         printf(lcd_putc,"\f");
4452:  MOVLW  0C
4454:  MOVWF  50
4456:  MOVLB  0
4458:  CALL   1320
....................                         lcd_gotoxy(0,1);
445C:  CLRF   51
445E:  MOVLW  01
4460:  MOVWF  52
4462:  CALL   12BE
....................                         printf(lcd_putc,"1>NPN 2>PNP");
4466:  MOVLW  0A
4468:  MOVWF  FF6
446A:  MOVLW  0F
446C:  MOVWF  FF7
446E:  CALL   1362
....................                         lcd_gotoxy(0,2);
4472:  CLRF   51
4474:  MOVLW  02
4476:  MOVWF  52
4478:  CALL   12BE
....................                         printf(lcd_putc,"3>Next");
447C:  MOVLW  16
447E:  MOVWF  FF6
4480:  MOVLW  0F
4482:  MOVWF  FF7
4484:  CALL   1362
....................                         delay_ms(100);
4488:  MOVLW  64
448A:  MOVWF  41
448C:  CALL   1382
....................                         while(1){
....................                            while(1){
....................                               if(Boton()==1) {
4490:  CALL   13A8
4494:  DECFSZ 01,W
4496:  BRA    456E
....................                                  SetearPuertosNPN();
4498:  CALL   1A0A
....................                                  printf(lcd_putc,"\f");
449C:  MOVLW  0C
449E:  MOVWF  50
44A0:  CALL   1320
....................                                  lcd_gotoxy(0,1);
44A4:  CLRF   51
44A6:  MOVLW  01
44A8:  MOVWF  52
44AA:  CALL   12BE
....................                                  printf(lcd_putc,"NPN Testing...");
44AE:  MOVLW  1E
44B0:  MOVWF  FF6
44B2:  MOVLW  0F
44B4:  MOVWF  FF7
44B6:  CALL   1362
....................                                  lcd_gotoxy(0,2);
44BA:  CLRF   51
44BC:  MOVLW  02
44BE:  MOVWF  52
44C0:  CALL   12BE
....................                                  printf(lcd_putc,"2>Volver");
44C4:  MOVLW  2E
44C6:  MOVWF  FF6
44C8:  MOVLW  0F
44CA:  MOVWF  FF7
44CC:  CALL   1362
....................                                  delay_ms(1000);
44D0:  MOVLW  04
44D2:  MOVWF  40
44D4:  MOVLW  FA
44D6:  MOVWF  41
44D8:  CALL   1382
44DC:  DECFSZ 40,F
44DE:  BRA    44D4
....................                                  while(1) {
....................                                     if (input(PIN_B5) == 1) {
44E0:  BTFSS  F81.5
44E2:  BRA    452E
....................                                           reiniciar();
44E4:  CALL   12B8
....................                                           printf(lcd_putc,"\f");
44E8:  MOVLW  0C
44EA:  MOVWF  50
44EC:  CALL   1320
....................                                           lcd_gotoxy(0,1);
44F0:  CLRF   51
44F2:  MOVLW  01
44F4:  MOVWF  52
44F6:  CALL   12BE
....................                                           printf(lcd_putc,"NPN BUENO");
44FA:  MOVLW  38
44FC:  MOVWF  FF6
44FE:  MOVLW  0F
4500:  MOVWF  FF7
4502:  CALL   1362
....................                                           lcd_gotoxy(0,2);
4506:  CLRF   51
4508:  MOVLW  02
450A:  MOVWF  52
450C:  CALL   12BE
....................                                           printf(lcd_putc,"Regresando...");
4510:  MOVLW  42
4512:  MOVWF  FF6
4514:  MOVLW  0F
4516:  MOVWF  FF7
4518:  CALL   1362
....................                                           delay_ms(1000);
451C:  MOVLW  04
451E:  MOVWF  40
4520:  MOVLW  FA
4522:  MOVWF  41
4524:  CALL   1382
4528:  DECFSZ 40,F
452A:  BRA    4520
....................                                           goto MENUTRANSISTORES;
452C:  BRA    4452
....................                                      }
....................                                     if(Boton() == 2){
452E:  CALL   13A8
4532:  MOVF   01,W
4534:  SUBLW  02
4536:  BNZ   456C
....................                                        reiniciar();
4538:  CALL   12B8
....................                                        printf(lcd_putc,"\f");
453C:  MOVLW  0C
453E:  MOVWF  50
4540:  CALL   1320
....................                                        lcd_gotoxy(0,2);
4544:  CLRF   51
4546:  MOVLW  02
4548:  MOVWF  52
454A:  CALL   12BE
....................                                        printf(lcd_putc,"Regresando...");
454E:  MOVLW  50
4550:  MOVWF  FF6
4552:  MOVLW  0F
4554:  MOVWF  FF7
4556:  CALL   1362
....................                                        delay_ms(1000);
455A:  MOVLW  04
455C:  MOVWF  40
455E:  MOVLW  FA
4560:  MOVWF  41
4562:  CALL   1382
4566:  DECFSZ 40,F
4568:  BRA    455E
....................                                        goto MENUTRANSISTORES;
456A:  BRA    4452
....................                                      }
456C:  BRA    44E0
....................                                   }
....................                               }
....................                               
....................                               if(Boton() == 2) {
456E:  CALL   13A8
4572:  MOVF   01,W
4574:  SUBLW  02
4576:  BNZ   4646
....................                                  SetearPuertosPNP();
4578:  CALL   1A1A
....................                                  printf(lcd_putc,"\f");
457C:  MOVLW  0C
457E:  MOVWF  50
4580:  CALL   1320
....................                                  lcd_gotoxy(0,1);
4584:  CLRF   51
4586:  MOVLW  01
4588:  MOVWF  52
458A:  CALL   12BE
....................                                  printf(lcd_putc,"PNP Testing...");
458E:  MOVLW  5E
4590:  MOVWF  FF6
4592:  MOVLW  0F
4594:  MOVWF  FF7
4596:  CALL   1362
....................                                  lcd_gotoxy(0,2);
459A:  CLRF   51
459C:  MOVLW  02
459E:  MOVWF  52
45A0:  CALL   12BE
....................                                  printf(lcd_putc,"2>Volver");
45A4:  MOVLW  6E
45A6:  MOVWF  FF6
45A8:  MOVLW  0F
45AA:  MOVWF  FF7
45AC:  CALL   1362
....................                                  delay_ms(1000);
45B0:  MOVLW  04
45B2:  MOVWF  40
45B4:  MOVLW  FA
45B6:  MOVWF  41
45B8:  CALL   1382
45BC:  DECFSZ 40,F
45BE:  BRA    45B4
....................                                  while(1) {
....................                                     if (input(PIN_B5) == 1) {
45C0:  BTFSS  F81.5
45C2:  BRA    460E
....................                                        reiniciar();
45C4:  CALL   12B8
....................                                        printf(lcd_putc,"\f");
45C8:  MOVLW  0C
45CA:  MOVWF  50
45CC:  CALL   1320
....................                                        lcd_gotoxy(0,1);
45D0:  CLRF   51
45D2:  MOVLW  01
45D4:  MOVWF  52
45D6:  CALL   12BE
....................                                        printf(lcd_putc,"PNP BUENO");
45DA:  MOVLW  78
45DC:  MOVWF  FF6
45DE:  MOVLW  0F
45E0:  MOVWF  FF7
45E2:  CALL   1362
....................                                        lcd_gotoxy(0,2);
45E6:  CLRF   51
45E8:  MOVLW  02
45EA:  MOVWF  52
45EC:  CALL   12BE
....................                                        printf(lcd_putc,"Regresando...");
45F0:  MOVLW  82
45F2:  MOVWF  FF6
45F4:  MOVLW  0F
45F6:  MOVWF  FF7
45F8:  CALL   1362
....................                                        delay_ms(1000);
45FC:  MOVLW  04
45FE:  MOVWF  40
4600:  MOVLW  FA
4602:  MOVWF  41
4604:  CALL   1382
4608:  DECFSZ 40,F
460A:  BRA    4600
....................                                        goto MENUTRANSISTORES;
460C:  BRA    4452
....................                                     }
....................                                     if(Boton() == 2){
460E:  CALL   13A8
4612:  MOVF   01,W
4614:  SUBLW  02
4616:  BNZ   4644
....................                                        reiniciar();
4618:  CALL   12B8
....................                                        lcd_gotoxy(0,2);
461C:  CLRF   51
461E:  MOVLW  02
4620:  MOVWF  52
4622:  CALL   12BE
....................                                        printf(lcd_putc,"Regresando...");
4626:  MOVLW  90
4628:  MOVWF  FF6
462A:  MOVLW  0F
462C:  MOVWF  FF7
462E:  CALL   1362
....................                                        delay_ms(1000);
4632:  MOVLW  04
4634:  MOVWF  40
4636:  MOVLW  FA
4638:  MOVWF  41
463A:  CALL   1382
463E:  DECFSZ 40,F
4640:  BRA    4636
....................                                        goto MENUTRANSISTORES;
4642:  BRA    4452
....................                                     }
4644:  BRA    45C0
....................                                  }
....................                               }
....................                                  
....................                               if(Boton() == 3) {
4646:  CALL   13A8
464A:  MOVF   01,W
464C:  SUBLW  03
464E:  BTFSS  FD8.2
4650:  BRA    4984
.................... MENUMOSFET:                              
....................                                  printf(lcd_putc,"\f");
4652:  MOVLW  0C
4654:  MOVWF  50
4656:  MOVLB  0
4658:  CALL   1320
....................                                  lcd_gotoxy(0,1);
465C:  CLRF   51
465E:  MOVLW  01
4660:  MOVWF  52
4662:  CALL   12BE
....................                                  printf(lcd_putc,"1>MOSF N");
4666:  MOVLW  9E
4668:  MOVWF  FF6
466A:  MOVLW  0F
466C:  MOVWF  FF7
466E:  CALL   1362
....................                                  lcd_gotoxy(0,2);
4672:  CLRF   51
4674:  MOVLW  02
4676:  MOVWF  52
4678:  CALL   12BE
....................                                  printf(lcd_putc,"2>MOSF P 3>Next");
467C:  MOVLW  A8
467E:  MOVWF  FF6
4680:  MOVLW  0F
4682:  MOVWF  FF7
4684:  CALL   1362
....................                                  delay_ms(100);
4688:  MOVLW  64
468A:  MOVWF  41
468C:  CALL   1382
....................                                  while(1) {
....................                                        if(Boton()==1) {
4690:  CALL   13A8
4694:  DECFSZ 01,W
4696:  BRA    4766
....................                                          
....................                                           SetearPuertosNPN();
4698:  CALL   1A0A
....................                                           printf(lcd_putc,"\f");
469C:  MOVLW  0C
469E:  MOVWF  50
46A0:  CALL   1320
....................                                           lcd_gotoxy(0,1);
46A4:  CLRF   51
46A6:  MOVLW  01
46A8:  MOVWF  52
46AA:  CALL   12BE
....................                                           printf(lcd_putc,"MOSFET Testing...");
46AE:  MOVLW  B8
46B0:  MOVWF  FF6
46B2:  MOVLW  0F
46B4:  MOVWF  FF7
46B6:  CALL   1362
....................                                           lcd_gotoxy(0,2);
46BA:  CLRF   51
46BC:  MOVLW  02
46BE:  MOVWF  52
46C0:  CALL   12BE
....................                                           printf(lcd_putc,"2>Volver");
46C4:  MOVLW  CA
46C6:  MOVWF  FF6
46C8:  MOVLW  0F
46CA:  MOVWF  FF7
46CC:  CALL   1362
....................                                           delay_ms(1000);
46D0:  MOVLW  04
46D2:  MOVWF  40
46D4:  MOVLW  FA
46D6:  MOVWF  41
46D8:  CALL   1382
46DC:  DECFSZ 40,F
46DE:  BRA    46D4
....................                                            while(1){
....................                                           if (input(PIN_B5) == 1) {
46E0:  BTFSS  F81.5
46E2:  BRA    472E
....................                                              reiniciar();
46E4:  CALL   12B8
....................                                              printf(lcd_putc,"\f");
46E8:  MOVLW  0C
46EA:  MOVWF  50
46EC:  CALL   1320
....................                                              lcd_gotoxy(0,1);
46F0:  CLRF   51
46F2:  MOVLW  01
46F4:  MOVWF  52
46F6:  CALL   12BE
....................                                              printf(lcd_putc,"MOSFET BUENO");
46FA:  MOVLW  D4
46FC:  MOVWF  FF6
46FE:  MOVLW  0F
4700:  MOVWF  FF7
4702:  CALL   1362
....................                                              lcd_gotoxy(0,2);
4706:  CLRF   51
4708:  MOVLW  02
470A:  MOVWF  52
470C:  CALL   12BE
....................                                              printf(lcd_putc,"Regresando...");
4710:  MOVLW  E2
4712:  MOVWF  FF6
4714:  MOVLW  0F
4716:  MOVWF  FF7
4718:  CALL   1362
....................                                              delay_ms(1000);
471C:  MOVLW  04
471E:  MOVWF  40
4720:  MOVLW  FA
4722:  MOVWF  41
4724:  CALL   1382
4728:  DECFSZ 40,F
472A:  BRA    4720
....................                                              goto MENUMOSFET;
472C:  BRA    4652
....................                                           }
....................                                           if(Boton() == 2){
472E:  CALL   13A8
4732:  MOVF   01,W
4734:  SUBLW  02
4736:  BNZ   4764
....................                                              reiniciar();
4738:  CALL   12B8
....................                                              lcd_gotoxy(0,2);
473C:  CLRF   51
473E:  MOVLW  02
4740:  MOVWF  52
4742:  CALL   12BE
....................                                              printf(lcd_putc,"Regresando...");
4746:  MOVLW  F0
4748:  MOVWF  FF6
474A:  MOVLW  0F
474C:  MOVWF  FF7
474E:  CALL   1362
....................                                              delay_ms(1000);
4752:  MOVLW  04
4754:  MOVWF  40
4756:  MOVLW  FA
4758:  MOVWF  41
475A:  CALL   1382
475E:  DECFSZ 40,F
4760:  BRA    4756
....................                                              goto MENUMOSFET;
4762:  BRA    4652
....................                                           }
4764:  BRA    46E0
....................                                           }
....................                                        }
....................                               
....................                                        if(Boton() == 2) {
4766:  CALL   13A8
476A:  MOVF   01,W
476C:  SUBLW  02
476E:  BNZ   4846
....................                                           SetearPuertosPNP();
4770:  CALL   1A1A
....................                                           printf(lcd_putc,"\f");
4774:  MOVLW  0C
4776:  MOVWF  50
4778:  CALL   1320
....................                                           lcd_gotoxy(0,1);
477C:  CLRF   51
477E:  MOVLW  01
4780:  MOVWF  52
4782:  CALL   12BE
....................                                           printf(lcd_putc,"MOSFET Testing...");
4786:  MOVLW  FE
4788:  MOVWF  FF6
478A:  MOVLW  0F
478C:  MOVWF  FF7
478E:  CALL   1362
....................                                           lcd_gotoxy(0,2);
4792:  CLRF   51
4794:  MOVLW  02
4796:  MOVWF  52
4798:  CALL   12BE
....................                                           printf(lcd_putc,"2>Volver");
479C:  MOVLW  10
479E:  MOVWF  FF6
47A0:  MOVLW  10
47A2:  MOVWF  FF7
47A4:  CALL   1362
....................                                           delay_ms(1000);
47A8:  MOVLW  04
47AA:  MOVWF  40
47AC:  MOVLW  FA
47AE:  MOVWF  41
47B0:  CALL   1382
47B4:  DECFSZ 40,F
47B6:  BRA    47AC
....................                                           while(1) {
....................                                              if (input(PIN_B5) == 1) {
47B8:  BTFSS  F81.5
47BA:  BRA    4806
....................                                                 reiniciar();
47BC:  CALL   12B8
....................                                                 printf(lcd_putc,"\f");
47C0:  MOVLW  0C
47C2:  MOVWF  50
47C4:  CALL   1320
....................                                                 lcd_gotoxy(0,1);
47C8:  CLRF   51
47CA:  MOVLW  01
47CC:  MOVWF  52
47CE:  CALL   12BE
....................                                                 printf(lcd_putc,"MOSFET BUENO");
47D2:  MOVLW  1A
47D4:  MOVWF  FF6
47D6:  MOVLW  10
47D8:  MOVWF  FF7
47DA:  CALL   1362
....................                                                 lcd_gotoxy(0,2);
47DE:  CLRF   51
47E0:  MOVLW  02
47E2:  MOVWF  52
47E4:  CALL   12BE
....................                                                 printf(lcd_putc,"Regresando...");
47E8:  MOVLW  28
47EA:  MOVWF  FF6
47EC:  MOVLW  10
47EE:  MOVWF  FF7
47F0:  CALL   1362
....................                                                 delay_ms(1000);
47F4:  MOVLW  04
47F6:  MOVWF  40
47F8:  MOVLW  FA
47FA:  MOVWF  41
47FC:  CALL   1382
4800:  DECFSZ 40,F
4802:  BRA    47F8
....................                                                 goto MENUMOSFET;
4804:  BRA    4652
....................                                              }
....................                                              if(Boton() == 2){
4806:  CALL   13A8
480A:  MOVF   01,W
480C:  SUBLW  02
480E:  BNZ   4844
....................                                                 printf(lcd_putc,"\f");
4810:  MOVLW  0C
4812:  MOVWF  50
4814:  CALL   1320
....................                                                 reiniciar();
4818:  CALL   12B8
....................                                                 lcd_gotoxy(0,2);
481C:  CLRF   51
481E:  MOVLW  02
4820:  MOVWF  52
4822:  CALL   12BE
....................                                                 printf(lcd_putc,"Regresando...");
4826:  MOVLW  36
4828:  MOVWF  FF6
482A:  MOVLW  10
482C:  MOVWF  FF7
482E:  CALL   1362
....................                                                 delay_ms(1000);
4832:  MOVLW  04
4834:  MOVWF  40
4836:  MOVLW  FA
4838:  MOVWF  41
483A:  CALL   1382
483E:  DECFSZ 40,F
4840:  BRA    4836
....................                                                 goto MENUMOSFET;
4842:  BRA    4652
....................                                              }
4844:  BRA    47B8
....................                                           }
....................                                        }
....................                                        
....................                                        if(Boton() == 3) {
4846:  CALL   13A8
484A:  MOVF   01,W
484C:  SUBLW  03
484E:  BTFSS  FD8.2
4850:  BRA    4982
.................... MENUOPTO:   
....................                                           printf(lcd_putc,"\f");
4852:  MOVLW  0C
4854:  MOVWF  50
4856:  MOVLB  0
4858:  CALL   1320
....................                                           lcd_gotoxy(0,1);
485C:  CLRF   51
485E:  MOVLW  01
4860:  MOVWF  52
4862:  CALL   12BE
....................                                           printf(lcd_putc,"1>MOC3020/3010 ");
4866:  MOVLW  44
4868:  MOVWF  FF6
486A:  MOVLW  10
486C:  MOVWF  FF7
486E:  CALL   1362
....................                                           lcd_gotoxy(0,2);                                        
4872:  CLRF   51
4874:  MOVLW  02
4876:  MOVWF  52
4878:  CALL   12BE
....................                                           printf(lcd_putc,"3>Next");
487C:  MOVLW  54
487E:  MOVWF  FF6
4880:  MOVLW  10
4882:  MOVWF  FF7
4884:  CALL   1362
....................                                           delay_ms(100);
4888:  MOVLW  64
488A:  MOVWF  41
488C:  CALL   1382
....................                                           while(1){
....................                                              if(Boton() == 1) {
4890:  CALL   13A8
4894:  DECFSZ 01,W
4896:  BRA    496E
....................                                                 SetearPuertosOPTO();
4898:  GOTO   1A32
....................                                                 printf(lcd_putc,"\f");
489C:  MOVLW  0C
489E:  MOVWF  50
48A0:  CALL   1320
....................                                                 lcd_gotoxy(0,1);
48A4:  CLRF   51
48A6:  MOVLW  01
48A8:  MOVWF  52
48AA:  CALL   12BE
....................                                                 printf(lcd_putc,"MOC Testing...");
48AE:  MOVLW  5C
48B0:  MOVWF  FF6
48B2:  MOVLW  10
48B4:  MOVWF  FF7
48B6:  CALL   1362
....................                                                 lcd_gotoxy(0,2);
48BA:  CLRF   51
48BC:  MOVLW  02
48BE:  MOVWF  52
48C0:  CALL   12BE
....................                                                 printf(lcd_putc,"2>Volver");
48C4:  MOVLW  6C
48C6:  MOVWF  FF6
48C8:  MOVLW  10
48CA:  MOVWF  FF7
48CC:  CALL   1362
....................                                                 delay_ms(1000);
48D0:  MOVLW  04
48D2:  MOVWF  40
48D4:  MOVLW  FA
48D6:  MOVWF  41
48D8:  CALL   1382
48DC:  DECFSZ 40,F
48DE:  BRA    48D4
....................                                                 while(1) {
....................                                                    if (input(PIN_B2) == 1) {
48E0:  BTFSS  F81.2
48E2:  BRA    492E
....................                                                       reiniciar();
48E4:  CALL   12B8
....................                                                       printf(lcd_putc,"\f");
48E8:  MOVLW  0C
48EA:  MOVWF  50
48EC:  CALL   1320
....................                                                       lcd_gotoxy(0,1);
48F0:  CLRF   51
48F2:  MOVLW  01
48F4:  MOVWF  52
48F6:  CALL   12BE
....................                                                       printf(lcd_putc,"MOC BUENO");
48FA:  MOVLW  76
48FC:  MOVWF  FF6
48FE:  MOVLW  10
4900:  MOVWF  FF7
4902:  CALL   1362
....................                                                       lcd_gotoxy(0,2);
4906:  CLRF   51
4908:  MOVLW  02
490A:  MOVWF  52
490C:  CALL   12BE
....................                                                       printf(lcd_putc,"Regresando...");
4910:  MOVLW  80
4912:  MOVWF  FF6
4914:  MOVLW  10
4916:  MOVWF  FF7
4918:  CALL   1362
....................                                                       delay_ms(1000);
491C:  MOVLW  04
491E:  MOVWF  40
4920:  MOVLW  FA
4922:  MOVWF  41
4924:  CALL   1382
4928:  DECFSZ 40,F
492A:  BRA    4920
....................                                                       goto MENUOPTO;
492C:  BRA    4852
....................                                                    }
....................                                                    if(Boton() == 2){
492E:  CALL   13A8
4932:  MOVF   01,W
4934:  SUBLW  02
4936:  BNZ   496C
....................                                                       printf(lcd_putc,"\f");
4938:  MOVLW  0C
493A:  MOVWF  50
493C:  CALL   1320
....................                                                       reiniciar();
4940:  CALL   12B8
....................                                                       lcd_gotoxy(0,2);
4944:  CLRF   51
4946:  MOVLW  02
4948:  MOVWF  52
494A:  CALL   12BE
....................                                                       printf(lcd_putc,"Regresando...");
494E:  MOVLW  8E
4950:  MOVWF  FF6
4952:  MOVLW  10
4954:  MOVWF  FF7
4956:  CALL   1362
....................                                                       delay_ms(1000);
495A:  MOVLW  04
495C:  MOVWF  40
495E:  MOVLW  FA
4960:  MOVWF  41
4962:  CALL   1382
4966:  DECFSZ 40,F
4968:  BRA    495E
....................                                                       goto MENUOPTO;
496A:  BRA    4852
....................                                                    }
496C:  BRA    48E0
....................                                                 }
....................                                              }
....................                                              if(Boton() == 3) {
496E:  CALL   13A8
4972:  MOVF   01,W
4974:  SUBLW  03
4976:  BNZ   4980
....................                                                    reiniciar();
4978:  CALL   12B8
....................                                                    goto MENUPRINCIPAL;
497C:  GOTO   1BD6
....................                                              }
4980:  BRA    4890
....................                                           }
....................                                        }
4982:  BRA    4690
....................                                  }
....................                               }
4984:  BRA    4490
....................                            }
4986:  BRA    4490
....................                         }
....................                      }
4988:  GOTO   3E6A
....................                      }
....................                   }
498C:  GOTO   38D4
....................                }
....................             }
4990:  GOTO   1C14
....................          }
4994:  MOVLB  0
4996:  GOTO   1BD6
....................       } 
....................    }
499A:  SLEEP 

Configuration Fuses:
   Word  1: C900   INTRC FCMEN IESO
   Word  2: 1E1E   PUT BROWNOUT BORV21 NOWDT WDT32768
   Word  3: 8700   CCP2C1 PBADEN LPT1OSC MCLR
   Word  4: 0081   STVREN NOLVP NOXINST NODEBUG
   Word  5: C00F   NOPROTECT NOCPB NOCPD
   Word  6: E00F   NOWRT NOWRTC NOWRTB NOWRTD
   Word  7: 400F   NOEBTR NOEBTRB
